
dhrystone.elf:     file format elf32-littleriscv


Disassembly of section .init:

20400000 <_enter>:
20400000:	5fc01197          	auipc	gp,0x5fc01
20400004:	18818193          	addi	gp,gp,392 # 80001188 <__global_pointer$>
20400008:	00003297          	auipc	t0,0x3
2040000c:	3fc28293          	addi	t0,t0,1020 # 20403404 <early_trap_vector>
20400010:	30529073          	csrw	mtvec,t0
20400014:	dfc00117          	auipc	sp,0xdfc00
20400018:	fec10113          	addi	sp,sp,-20 # 0 <__heap_size-0x400>
2040001c:	dfc00097          	auipc	ra,0xdfc00
20400020:	fe408093          	addi	ra,ra,-28 # 0 <__heap_size-0x400>
20400024:	00008363          	beqz	ra,2040002a <_enter+0x2a>
20400028:	9082                	jalr	ra
2040002a:	f1402573          	csrr	a0,mhartid
2040002e:	4581                	li	a1,0
20400030:	4601                	li	a2,0
20400032:	200d                	jal	20400054 <_start>
20400034:	dfc00097          	auipc	ra,0xdfc00
20400038:	fcc08093          	addi	ra,ra,-52 # 0 <__heap_size-0x400>
2040003c:	00008363          	beqz	ra,20400042 <_enter+0x42>
20400040:	9082                	jalr	ra
20400042:	00000297          	auipc	t0,0x0
20400046:	00c28293          	addi	t0,t0,12 # 2040004e <_enter+0x4e>
2040004a:	30529073          	csrw	mtvec,t0
2040004e:	00002303          	lw	t1,0(zero) # 0 <__heap_size-0x400>
20400052:	bff5                	j	2040004e <_enter+0x4e>

20400054 <_start>:
20400054:	8406                	mv	s0,ra
20400056:	5fc01197          	auipc	gp,0x5fc01
2040005a:	13218193          	addi	gp,gp,306 # 80001188 <__global_pointer$>
2040005e:	5fc04117          	auipc	sp,0x5fc04
20400062:	9e210113          	addi	sp,sp,-1566 # 80003a40 <metal_segment_stack_end>
20400066:	ff017113          	andi	sp,sp,-16
2040006a:	e101                	bnez	a0,2040006a <_start+0x16>
2040006c:	00006297          	auipc	t0,0x6
20400070:	36c28293          	addi	t0,t0,876 # 204063d8 <__init_array_end>
20400074:	5fc00317          	auipc	t1,0x5fc00
20400078:	f8c30313          	addi	t1,t1,-116 # 80000000 <metal_segment_data_target_start>
2040007c:	5fc01397          	auipc	t2,0x5fc01
20400080:	92438393          	addi	t2,t2,-1756 # 800009a0 <Begin_Time>
20400084:	00628c63          	beq	t0,t1,2040009c <_start+0x48>
20400088:	00735a63          	bge	t1,t2,2040009c <_start+0x48>
2040008c:	0002a503          	lw	a0,0(t0)
20400090:	0291                	addi	t0,t0,4
20400092:	00a32023          	sw	a0,0(t1)
20400096:	0311                	addi	t1,t1,4
20400098:	fe734ae3          	blt	t1,t2,2040008c <_start+0x38>
2040009c:	00006297          	auipc	t0,0x6
204000a0:	33c28293          	addi	t0,t0,828 # 204063d8 <__init_array_end>
204000a4:	e7c00317          	auipc	t1,0xe7c00
204000a8:	f5c30313          	addi	t1,t1,-164 # 8000000 <metal_segment_itim_target_end>
204000ac:	e7c00397          	auipc	t2,0xe7c00
204000b0:	f5438393          	addi	t2,t2,-172 # 8000000 <metal_segment_itim_target_end>
204000b4:	00628c63          	beq	t0,t1,204000cc <_start+0x78>
204000b8:	00735a63          	bge	t1,t2,204000cc <_start+0x78>
204000bc:	0002a503          	lw	a0,0(t0)
204000c0:	0291                	addi	t0,t0,4
204000c2:	00a32023          	sw	a0,0(t1)
204000c6:	0311                	addi	t1,t1,4
204000c8:	fe734ae3          	blt	t1,t2,204000bc <_start+0x68>
204000cc:	5fc01317          	auipc	t1,0x5fc01
204000d0:	8d430313          	addi	t1,t1,-1836 # 800009a0 <Begin_Time>
204000d4:	5fc03397          	auipc	t2,0x5fc03
204000d8:	16c38393          	addi	t2,t2,364 # 80003240 <metal_segment_bss_target_end>
204000dc:	00735763          	bge	t1,t2,204000ea <_start+0x96>
204000e0:	00032023          	sw	zero,0(t1)
204000e4:	0311                	addi	t1,t1,4
204000e6:	fe734de3          	blt	t1,t2,204000e0 <_start+0x8c>
204000ea:	c211                	beqz	a2,204000ee <_start+0x9a>
204000ec:	9602                	jalr	a2
204000ee:	00003517          	auipc	a0,0x3
204000f2:	57450513          	addi	a0,a0,1396 # 20403662 <__libc_fini_array>
204000f6:	52a030ef          	jal	ra,20403620 <atexit>
204000fa:	5a2030ef          	jal	ra,2040369c <__libc_init_array>
204000fe:	301027f3          	csrr	a5,misa
20400102:	00010737          	lui	a4,0x10
20400106:	02870713          	addi	a4,a4,40 # 10028 <__stack_size+0xf828>
2040010a:	8ff9                	and	a5,a5,a4
2040010c:	c799                	beqz	a5,2040011a <_start+0xc6>
2040010e:	300027f3          	csrr	a5,mstatus
20400112:	6709                	lui	a4,0x2
20400114:	8fd9                	or	a5,a5,a4
20400116:	30079073          	csrw	mstatus,a5
2040011a:	4505                	li	a0,1
2040011c:	00006597          	auipc	a1,0x6
20400120:	05458593          	addi	a1,a1,84 # 20406170 <argv>
20400124:	00006617          	auipc	a2,0x6
20400128:	05060613          	addi	a2,a2,80 # 20406174 <envp>
2040012c:	2891                	jal	20400180 <main>
2040012e:	508030ef          	jal	ra,20403636 <exit>
20400132:	80a2                	mv	ra,s0
20400134:	8082                	ret

20400136 <_fini>:
20400136:	8082                	ret

Disassembly of section .text:

20400180 <main>:
20400180:	7135                	addi	sp,sp,-160
20400182:	03000513          	li	a0,48
20400186:	cf06                	sw	ra,156(sp)
20400188:	cd22                	sw	s0,152(sp)
2040018a:	dae6                	sw	s9,116(sp)
2040018c:	d6ee                	sw	s11,108(sp)
2040018e:	cb26                	sw	s1,148(sp)
20400190:	c94a                	sw	s2,144(sp)
20400192:	c74e                	sw	s3,140(sp)
20400194:	c552                	sw	s4,136(sp)
20400196:	c356                	sw	s5,132(sp)
20400198:	c15a                	sw	s6,128(sp)
2040019a:	dede                	sw	s7,124(sp)
2040019c:	dce2                	sw	s8,120(sp)
2040019e:	d8ea                	sw	s10,112(sp)
204001a0:	0f1000ef          	jal	ra,20400a90 <malloc>
204001a4:	800017b7          	lui	a5,0x80001
204001a8:	9bc78413          	addi	s0,a5,-1604 # 800009bc <metal_segment_heap_target_end+0xffffc9bc>
204001ac:	c008                	sw	a0,0(s0)
204001ae:	03000513          	li	a0,48
204001b2:	c422                	sw	s0,8(sp)
204001b4:	0dd000ef          	jal	ra,20400a90 <malloc>
204001b8:	401c                	lw	a5,0(s0)
204001ba:	80001cb7          	lui	s9,0x80001
204001be:	9c0c8c93          	addi	s9,s9,-1600 # 800009c0 <metal_segment_heap_target_end+0xffffc9c0>
204001c2:	00aca023          	sw	a0,0(s9)
204001c6:	c11c                	sw	a5,0(a0)
204001c8:	4789                	li	a5,2
204001ca:	c51c                	sw	a5,8(a0)
204001cc:	204065b7          	lui	a1,0x20406
204001d0:	02800793          	li	a5,40
204001d4:	c55c                	sw	a5,12(a0)
204001d6:	467d                	li	a2,31
204001d8:	82c58593          	addi	a1,a1,-2004 # 2040582c <_exit+0x1a>
204001dc:	00052223          	sw	zero,4(a0)
204001e0:	0541                	addi	a0,a0,16
204001e2:	0bd000ef          	jal	ra,20400a9e <memcpy>
204001e6:	20406737          	lui	a4,0x20406
204001ea:	dc870793          	addi	a5,a4,-568 # 20405dc8 <_exit+0x5b6>
204001ee:	dc872e03          	lw	t3,-568(a4)
204001f2:	0047a303          	lw	t1,4(a5)
204001f6:	0087a883          	lw	a7,8(a5)
204001fa:	00c7a803          	lw	a6,12(a5)
204001fe:	4b8c                	lw	a1,16(a5)
20400200:	4bd0                	lw	a2,20(a5)
20400202:	4f94                	lw	a3,24(a5)
20400204:	01c7d703          	lhu	a4,28(a5)
20400208:	01e7c783          	lbu	a5,30(a5)
2040020c:	20406437          	lui	s0,0x20406
20400210:	80001db7          	lui	s11,0x80001
20400214:	02e11e23          	sh	a4,60(sp)
20400218:	02f10f23          	sb	a5,62(sp)
2040021c:	aa0d8713          	addi	a4,s11,-1376 # 80000aa0 <metal_segment_heap_target_end+0xffffcaa0>
20400220:	47a9                	li	a5,10
20400222:	a9440513          	addi	a0,s0,-1388 # 20405a94 <_exit+0x282>
20400226:	64f72e23          	sw	a5,1628(a4)
2040022a:	d072                	sw	t3,32(sp)
2040022c:	d21a                	sw	t1,36(sp)
2040022e:	d446                	sw	a7,40(sp)
20400230:	d642                	sw	a6,44(sp)
20400232:	d82e                	sw	a1,48(sp)
20400234:	da32                	sw	a2,52(sp)
20400236:	dc36                	sw	a3,56(sp)
20400238:	2a7000ef          	jal	ra,20400cde <iprintf>
2040023c:	20406537          	lui	a0,0x20406
20400240:	84c50513          	addi	a0,a0,-1972 # 2040584c <_exit+0x3a>
20400244:	29b000ef          	jal	ra,20400cde <iprintf>
20400248:	a9440513          	addi	a0,s0,-1388
2040024c:	293000ef          	jal	ra,20400cde <iprintf>
20400250:	800017b7          	lui	a5,0x80001
20400254:	9c47a783          	lw	a5,-1596(a5) # 800009c4 <metal_segment_heap_target_end+0xffffc9c4>
20400258:	52078f63          	beqz	a5,20400796 <main+0x616>
2040025c:	20406537          	lui	a0,0x20406
20400260:	87c50513          	addi	a0,a0,-1924 # 2040587c <_exit+0x6a>
20400264:	27b000ef          	jal	ra,20400cde <iprintf>
20400268:	a9440513          	addi	a0,s0,-1388
2040026c:	273000ef          	jal	ra,20400cde <iprintf>
20400270:	20406537          	lui	a0,0x20406
20400274:	8d850513          	addi	a0,a0,-1832 # 204058d8 <_exit+0xc6>
20400278:	267000ef          	jal	ra,20400cde <iprintf>
2040027c:	20406537          	lui	a0,0x20406
20400280:	008c                	addi	a1,sp,64
20400282:	91050513          	addi	a0,a0,-1776 # 20405910 <_exit+0xfe>
20400286:	2cd000ef          	jal	ra,20400d52 <iscanf>
2040028a:	204067b7          	lui	a5,0x20406
2040028e:	a9478513          	addi	a0,a5,-1388 # 20405a94 <_exit+0x282>
20400292:	24d000ef          	jal	ra,20400cde <iprintf>
20400296:	20406537          	lui	a0,0x20406
2040029a:	7d000593          	li	a1,2000
2040029e:	91450513          	addi	a0,a0,-1772 # 20405914 <_exit+0x102>
204002a2:	23d000ef          	jal	ra,20400cde <iprintf>
204002a6:	4501                	li	a0,0
204002a8:	40d000ef          	jal	ra,20400eb4 <time>
204002ac:	20406937          	lui	s2,0x20406
204002b0:	de892783          	lw	a5,-536(s2) # 20405de8 <_exit+0x5d6>
204002b4:	20406d37          	lui	s10,0x20406
204002b8:	e08d2c03          	lw	s8,-504(s10) # 20405e08 <_exit+0x5f6>
204002bc:	c23e                	sw	a5,4(sp)
204002be:	800017b7          	lui	a5,0x80001
204002c2:	9a078793          	addi	a5,a5,-1632 # 800009a0 <metal_segment_heap_target_end+0xffffc9a0>
204002c6:	c63e                	sw	a5,12(sp)
204002c8:	c388                	sw	a0,0(a5)
204002ca:	800017b7          	lui	a5,0x80001
204002ce:	9a478793          	addi	a5,a5,-1628 # 800009a4 <metal_segment_heap_target_end+0xffffc9a4>
204002d2:	800014b7          	lui	s1,0x80001
204002d6:	80001bb7          	lui	s7,0x80001
204002da:	4985                	li	s3,1
204002dc:	de890913          	addi	s2,s2,-536
204002e0:	c03e                	sw	a5,0(sp)
204002e2:	9a948493          	addi	s1,s1,-1623 # 800009a9 <metal_segment_heap_target_end+0xffffc9a9>
204002e6:	9b4b8b93          	addi	s7,s7,-1612 # 800009b4 <metal_segment_heap_target_end+0xffffc9b4>
204002ea:	4409                	li	s0,2
204002ec:	65c000ef          	jal	ra,20400948 <Proc_5>
204002f0:	2525                	jal	20400918 <Proc_4>
204002f2:	01e94783          	lbu	a5,30(s2)
204002f6:	01492603          	lw	a2,20(s2)
204002fa:	00492e03          	lw	t3,4(s2)
204002fe:	00892303          	lw	t1,8(s2)
20400302:	00c92883          	lw	a7,12(s2)
20400306:	01092803          	lw	a6,16(s2)
2040030a:	01892683          	lw	a3,24(s2)
2040030e:	01c95703          	lhu	a4,28(s2)
20400312:	4e92                	lw	t4,4(sp)
20400314:	04f10f23          	sb	a5,94(sp)
20400318:	008c                	addi	a1,sp,64
2040031a:	4785                	li	a5,1
2040031c:	1008                	addi	a0,sp,32
2040031e:	cab2                	sw	a2,84(sp)
20400320:	ce3e                	sw	a5,28(sp)
20400322:	ca22                	sw	s0,20(sp)
20400324:	c0f6                	sw	t4,64(sp)
20400326:	c2f2                	sw	t3,68(sp)
20400328:	c49a                	sw	t1,72(sp)
2040032a:	c6c6                	sw	a7,76(sp)
2040032c:	c8c2                	sw	a6,80(sp)
2040032e:	ccb6                	sw	a3,88(sp)
20400330:	04e11e23          	sh	a4,92(sp)
20400334:	6a0000ef          	jal	ra,204009d4 <Func_2>
20400338:	4782                	lw	a5,0(sp)
2040033a:	4652                	lw	a2,20(sp)
2040033c:	00153513          	seqz	a0,a0
20400340:	c388                	sw	a0,0(a5)
20400342:	02c44063          	blt	s0,a2,20400362 <main+0x1e2>
20400346:	00261793          	slli	a5,a2,0x2
2040034a:	97b2                	add	a5,a5,a2
2040034c:	17f5                	addi	a5,a5,-3
2040034e:	8532                	mv	a0,a2
20400350:	458d                	li	a1,3
20400352:	0830                	addi	a2,sp,24
20400354:	cc3e                	sw	a5,24(sp)
20400356:	2529                	jal	20400960 <Proc_7>
20400358:	4652                	lw	a2,20(sp)
2040035a:	0605                	addi	a2,a2,1
2040035c:	ca32                	sw	a2,20(sp)
2040035e:	fec454e3          	bge	s0,a2,20400346 <main+0x1c6>
20400362:	46e2                	lw	a3,24(sp)
20400364:	800017b7          	lui	a5,0x80001
20400368:	9d878513          	addi	a0,a5,-1576 # 800009d8 <metal_segment_heap_target_end+0xffffc9d8>
2040036c:	aa0d8593          	addi	a1,s11,-1376
20400370:	2bf5                	jal	2040096c <Proc_8>
20400372:	000ca503          	lw	a0,0(s9)
20400376:	04100a93          	li	s5,65
2040037a:	4a0d                	li	s4,3
2040037c:	2175                	jal	20400828 <Proc_1>
2040037e:	0004c703          	lbu	a4,0(s1)
20400382:	04000793          	li	a5,64
20400386:	e08d0b13          	addi	s6,s10,-504
2040038a:	02e7f163          	bgeu	a5,a4,204003ac <main+0x22c>
2040038e:	8556                	mv	a0,s5
20400390:	04300593          	li	a1,67
20400394:	2505                	jal	204009b4 <Func_1>
20400396:	47f2                	lw	a5,28(sp)
20400398:	001a8713          	addi	a4,s5,1
2040039c:	3af50463          	beq	a0,a5,20400744 <main+0x5c4>
204003a0:	0004c783          	lbu	a5,0(s1)
204003a4:	0ff77a93          	andi	s5,a4,255
204003a8:	ff57f3e3          	bgeu	a5,s5,2040038e <main+0x20e>
204003ac:	47d2                	lw	a5,20(sp)
204003ae:	4b62                	lw	s6,24(sp)
204003b0:	0848                	addi	a0,sp,20
204003b2:	02fa0a33          	mul	s4,s4,a5
204003b6:	0985                	addi	s3,s3,1
204003b8:	036a4ab3          	div	s5,s4,s6
204003bc:	ca56                	sw	s5,20(sp)
204003be:	210d                	jal	204007e0 <Proc_2>
204003c0:	7d100793          	li	a5,2001
204003c4:	f2f994e3          	bne	s3,a5,204002ec <main+0x16c>
204003c8:	4501                	li	a0,0
204003ca:	80001d37          	lui	s10,0x80001
204003ce:	2e7000ef          	jal	ra,20400eb4 <time>
204003d2:	9b0d0d13          	addi	s10,s10,-1616 # 800009b0 <metal_segment_heap_target_end+0xffffc9b0>
204003d6:	00ad2023          	sw	a0,0(s10)
204003da:	20406537          	lui	a0,0x20406
204003de:	94450513          	addi	a0,a0,-1724 # 20405944 <_exit+0x132>
204003e2:	0fd000ef          	jal	ra,20400cde <iprintf>
204003e6:	20406437          	lui	s0,0x20406
204003ea:	a9440513          	addi	a0,s0,-1388 # 20405a94 <_exit+0x282>
204003ee:	0f1000ef          	jal	ra,20400cde <iprintf>
204003f2:	20406537          	lui	a0,0x20406
204003f6:	95450513          	addi	a0,a0,-1708 # 20405954 <_exit+0x142>
204003fa:	0e5000ef          	jal	ra,20400cde <iprintf>
204003fe:	a9440513          	addi	a0,s0,-1388
20400402:	0dd000ef          	jal	ra,20400cde <iprintf>
20400406:	000ba583          	lw	a1,0(s7)
2040040a:	20406537          	lui	a0,0x20406
2040040e:	98c50513          	addi	a0,a0,-1652 # 2040598c <_exit+0x17a>
20400412:	20406437          	lui	s0,0x20406
20400416:	0c9000ef          	jal	ra,20400cde <iprintf>
2040041a:	4595                	li	a1,5
2040041c:	9a840513          	addi	a0,s0,-1624 # 204059a8 <_exit+0x196>
20400420:	0bf000ef          	jal	ra,20400cde <iprintf>
20400424:	4782                	lw	a5,0(sp)
20400426:	20406537          	lui	a0,0x20406
2040042a:	9c450513          	addi	a0,a0,-1596 # 204059c4 <_exit+0x1b2>
2040042e:	438c                	lw	a1,0(a5)
20400430:	20406937          	lui	s2,0x20406
20400434:	20406db7          	lui	s11,0x20406
20400438:	0a7000ef          	jal	ra,20400cde <iprintf>
2040043c:	4585                	li	a1,1
2040043e:	9a840513          	addi	a0,s0,-1624
20400442:	09d000ef          	jal	ra,20400cde <iprintf>
20400446:	800017b7          	lui	a5,0x80001
2040044a:	9a87c583          	lbu	a1,-1624(a5) # 800009a8 <metal_segment_heap_target_end+0xffffc9a8>
2040044e:	20406537          	lui	a0,0x20406
20400452:	9e050513          	addi	a0,a0,-1568 # 204059e0 <_exit+0x1ce>
20400456:	089000ef          	jal	ra,20400cde <iprintf>
2040045a:	04100593          	li	a1,65
2040045e:	9fc90513          	addi	a0,s2,-1540 # 204059fc <_exit+0x1ea>
20400462:	07d000ef          	jal	ra,20400cde <iprintf>
20400466:	0004c583          	lbu	a1,0(s1)
2040046a:	20406537          	lui	a0,0x20406
2040046e:	a1850513          	addi	a0,a0,-1512 # 20405a18 <_exit+0x206>
20400472:	06d000ef          	jal	ra,20400cde <iprintf>
20400476:	04200593          	li	a1,66
2040047a:	9fc90513          	addi	a0,s2,-1540
2040047e:	061000ef          	jal	ra,20400cde <iprintf>
20400482:	800017b7          	lui	a5,0x80001
20400486:	9d878793          	addi	a5,a5,-1576 # 800009d8 <metal_segment_heap_target_end+0xffffc9d8>
2040048a:	538c                	lw	a1,32(a5)
2040048c:	20406537          	lui	a0,0x20406
20400490:	a3450513          	addi	a0,a0,-1484 # 20405a34 <_exit+0x222>
20400494:	04b000ef          	jal	ra,20400cde <iprintf>
20400498:	459d                	li	a1,7
2040049a:	9a840513          	addi	a0,s0,-1624
2040049e:	041000ef          	jal	ra,20400cde <iprintf>
204004a2:	800017b7          	lui	a5,0x80001
204004a6:	aa078793          	addi	a5,a5,-1376 # 80000aa0 <metal_segment_heap_target_end+0xffffcaa0>
204004aa:	65c7a583          	lw	a1,1628(a5)
204004ae:	20406537          	lui	a0,0x20406
204004b2:	a5050513          	addi	a0,a0,-1456 # 20405a50 <_exit+0x23e>
204004b6:	029000ef          	jal	ra,20400cde <iprintf>
204004ba:	20406537          	lui	a0,0x20406
204004be:	a6c50513          	addi	a0,a0,-1428 # 20405a6c <_exit+0x25a>
204004c2:	01d000ef          	jal	ra,20400cde <iprintf>
204004c6:	20406537          	lui	a0,0x20406
204004ca:	a9850513          	addi	a0,a0,-1384 # 20405a98 <_exit+0x286>
204004ce:	011000ef          	jal	ra,20400cde <iprintf>
204004d2:	000ca783          	lw	a5,0(s9)
204004d6:	aa4d8513          	addi	a0,s11,-1372 # 20405aa4 <_exit+0x292>
204004da:	20406c37          	lui	s8,0x20406
204004de:	438c                	lw	a1,0(a5)
204004e0:	20406bb7          	lui	s7,0x20406
204004e4:	204069b7          	lui	s3,0x20406
204004e8:	7f6000ef          	jal	ra,20400cde <iprintf>
204004ec:	20406537          	lui	a0,0x20406
204004f0:	ac050513          	addi	a0,a0,-1344 # 20405ac0 <_exit+0x2ae>
204004f4:	7ea000ef          	jal	ra,20400cde <iprintf>
204004f8:	000ca783          	lw	a5,0(s9)
204004fc:	af4c0513          	addi	a0,s8,-1292 # 20405af4 <_exit+0x2e2>
20400500:	20406937          	lui	s2,0x20406
20400504:	43cc                	lw	a1,4(a5)
20400506:	204064b7          	lui	s1,0x20406
2040050a:	416a0a33          	sub	s4,s4,s6
2040050e:	7d0000ef          	jal	ra,20400cde <iprintf>
20400512:	4581                	li	a1,0
20400514:	9a840513          	addi	a0,s0,-1624
20400518:	7c6000ef          	jal	ra,20400cde <iprintf>
2040051c:	000ca783          	lw	a5,0(s9)
20400520:	b10b8513          	addi	a0,s7,-1264 # 20405b10 <_exit+0x2fe>
20400524:	478c                	lw	a1,8(a5)
20400526:	7b8000ef          	jal	ra,20400cde <iprintf>
2040052a:	4589                	li	a1,2
2040052c:	9a840513          	addi	a0,s0,-1624
20400530:	7ae000ef          	jal	ra,20400cde <iprintf>
20400534:	000ca783          	lw	a5,0(s9)
20400538:	b2c98513          	addi	a0,s3,-1236 # 20405b2c <_exit+0x31a>
2040053c:	47cc                	lw	a1,12(a5)
2040053e:	7a0000ef          	jal	ra,20400cde <iprintf>
20400542:	45c5                	li	a1,17
20400544:	9a840513          	addi	a0,s0,-1624
20400548:	796000ef          	jal	ra,20400cde <iprintf>
2040054c:	000ca583          	lw	a1,0(s9)
20400550:	b4890513          	addi	a0,s2,-1208 # 20405b48 <_exit+0x336>
20400554:	05c1                	addi	a1,a1,16
20400556:	788000ef          	jal	ra,20400cde <iprintf>
2040055a:	b6448513          	addi	a0,s1,-1180 # 20405b64 <_exit+0x352>
2040055e:	780000ef          	jal	ra,20400cde <iprintf>
20400562:	20406537          	lui	a0,0x20406
20400566:	b9c50513          	addi	a0,a0,-1124 # 20405b9c <_exit+0x38a>
2040056a:	774000ef          	jal	ra,20400cde <iprintf>
2040056e:	4ca2                	lw	s9,8(sp)
20400570:	aa4d8513          	addi	a0,s11,-1372
20400574:	000ca783          	lw	a5,0(s9)
20400578:	438c                	lw	a1,0(a5)
2040057a:	764000ef          	jal	ra,20400cde <iprintf>
2040057e:	20406537          	lui	a0,0x20406
20400582:	bb050513          	addi	a0,a0,-1104 # 20405bb0 <_exit+0x39e>
20400586:	758000ef          	jal	ra,20400cde <iprintf>
2040058a:	000ca783          	lw	a5,0(s9)
2040058e:	af4c0513          	addi	a0,s8,-1292
20400592:	43cc                	lw	a1,4(a5)
20400594:	74a000ef          	jal	ra,20400cde <iprintf>
20400598:	4581                	li	a1,0
2040059a:	9a840513          	addi	a0,s0,-1624
2040059e:	740000ef          	jal	ra,20400cde <iprintf>
204005a2:	000ca783          	lw	a5,0(s9)
204005a6:	b10b8513          	addi	a0,s7,-1264
204005aa:	478c                	lw	a1,8(a5)
204005ac:	732000ef          	jal	ra,20400cde <iprintf>
204005b0:	4585                	li	a1,1
204005b2:	9a840513          	addi	a0,s0,-1624
204005b6:	728000ef          	jal	ra,20400cde <iprintf>
204005ba:	000ca783          	lw	a5,0(s9)
204005be:	b2c98513          	addi	a0,s3,-1236
204005c2:	47cc                	lw	a1,12(a5)
204005c4:	71a000ef          	jal	ra,20400cde <iprintf>
204005c8:	45c9                	li	a1,18
204005ca:	9a840513          	addi	a0,s0,-1624
204005ce:	710000ef          	jal	ra,20400cde <iprintf>
204005d2:	000ca583          	lw	a1,0(s9)
204005d6:	b4890513          	addi	a0,s2,-1208
204005da:	05c1                	addi	a1,a1,16
204005dc:	702000ef          	jal	ra,20400cde <iprintf>
204005e0:	b6448513          	addi	a0,s1,-1180
204005e4:	6fa000ef          	jal	ra,20400cde <iprintf>
204005e8:	45d2                	lw	a1,20(sp)
204005ea:	20406537          	lui	a0,0x20406
204005ee:	bf050513          	addi	a0,a0,-1040 # 20405bf0 <_exit+0x3de>
204005f2:	6ec000ef          	jal	ra,20400cde <iprintf>
204005f6:	4595                	li	a1,5
204005f8:	9a840513          	addi	a0,s0,-1624
204005fc:	6e2000ef          	jal	ra,20400cde <iprintf>
20400600:	003a1793          	slli	a5,s4,0x3
20400604:	41478a33          	sub	s4,a5,s4
20400608:	20406537          	lui	a0,0x20406
2040060c:	415a05b3          	sub	a1,s4,s5
20400610:	c0c50513          	addi	a0,a0,-1012 # 20405c0c <_exit+0x3fa>
20400614:	6ca000ef          	jal	ra,20400cde <iprintf>
20400618:	45b5                	li	a1,13
2040061a:	9a840513          	addi	a0,s0,-1624
2040061e:	6c0000ef          	jal	ra,20400cde <iprintf>
20400622:	45e2                	lw	a1,24(sp)
20400624:	20406537          	lui	a0,0x20406
20400628:	c2850513          	addi	a0,a0,-984 # 20405c28 <_exit+0x416>
2040062c:	6b2000ef          	jal	ra,20400cde <iprintf>
20400630:	459d                	li	a1,7
20400632:	9a840513          	addi	a0,s0,-1624
20400636:	6a8000ef          	jal	ra,20400cde <iprintf>
2040063a:	45f2                	lw	a1,28(sp)
2040063c:	20406537          	lui	a0,0x20406
20400640:	c4450513          	addi	a0,a0,-956 # 20405c44 <_exit+0x432>
20400644:	69a000ef          	jal	ra,20400cde <iprintf>
20400648:	4585                	li	a1,1
2040064a:	9a840513          	addi	a0,s0,-1624
2040064e:	690000ef          	jal	ra,20400cde <iprintf>
20400652:	20406537          	lui	a0,0x20406
20400656:	100c                	addi	a1,sp,32
20400658:	c6050513          	addi	a0,a0,-928 # 20405c60 <_exit+0x44e>
2040065c:	682000ef          	jal	ra,20400cde <iprintf>
20400660:	20406537          	lui	a0,0x20406
20400664:	c7c50513          	addi	a0,a0,-900 # 20405c7c <_exit+0x46a>
20400668:	676000ef          	jal	ra,20400cde <iprintf>
2040066c:	20406537          	lui	a0,0x20406
20400670:	008c                	addi	a1,sp,64
20400672:	cb450513          	addi	a0,a0,-844 # 20405cb4 <_exit+0x4a2>
20400676:	668000ef          	jal	ra,20400cde <iprintf>
2040067a:	20406537          	lui	a0,0x20406
2040067e:	cd050513          	addi	a0,a0,-816 # 20405cd0 <_exit+0x4be>
20400682:	65c000ef          	jal	ra,20400cde <iprintf>
20400686:	20406437          	lui	s0,0x20406
2040068a:	a9440513          	addi	a0,s0,-1388 # 20405a94 <_exit+0x282>
2040068e:	650000ef          	jal	ra,20400cde <iprintf>
20400692:	47b2                	lw	a5,12(sp)
20400694:	000d2503          	lw	a0,0(s10)
20400698:	4398                	lw	a4,0(a5)
2040069a:	4785                	li	a5,1
2040069c:	8d19                	sub	a0,a0,a4
2040069e:	80001737          	lui	a4,0x80001
204006a2:	9ca72423          	sw	a0,-1592(a4) # 800009c8 <metal_segment_heap_target_end+0xffffc9c8>
204006a6:	10a7d363          	bge	a5,a0,204007ac <main+0x62c>
204006aa:	463020ef          	jal	ra,2040330c <__floatsisf>
204006ae:	204067b7          	lui	a5,0x20406
204006b2:	8247a583          	lw	a1,-2012(a5) # 20405824 <_exit+0x12>
204006b6:	20406437          	lui	s0,0x20406
204006ba:	89aa                	mv	s3,a0
204006bc:	1d5020ef          	jal	ra,20403090 <__mulsf3>
204006c0:	82842583          	lw	a1,-2008(s0) # 20405828 <_exit+0x16>
204006c4:	800014b7          	lui	s1,0x80001
204006c8:	9b848493          	addi	s1,s1,-1608 # 800009b8 <metal_segment_heap_target_end+0xffffc9b8>
204006cc:	77a020ef          	jal	ra,20402e46 <__divsf3>
204006d0:	c088                	sw	a0,0(s1)
204006d2:	82842503          	lw	a0,-2008(s0)
204006d6:	85ce                	mv	a1,s3
204006d8:	80001437          	lui	s0,0x80001
204006dc:	76a020ef          	jal	ra,20402e46 <__divsf3>
204006e0:	9ac40413          	addi	s0,s0,-1620 # 800009ac <metal_segment_heap_target_end+0xffffc9ac>
204006e4:	c008                	sw	a0,0(s0)
204006e6:	20406537          	lui	a0,0x20406
204006ea:	d6050513          	addi	a0,a0,-672 # 20405d60 <_exit+0x54e>
204006ee:	2bc5                	jal	20400cde <iprintf>
204006f0:	4088                	lw	a0,0(s1)
204006f2:	20406937          	lui	s2,0x20406
204006f6:	3b7020ef          	jal	ra,204032ac <__fixsfsi>
204006fa:	85aa                	mv	a1,a0
204006fc:	d9090513          	addi	a0,s2,-624 # 20405d90 <_exit+0x57e>
20400700:	2bf9                	jal	20400cde <iprintf>
20400702:	20406537          	lui	a0,0x20406
20400706:	d9850513          	addi	a0,a0,-616 # 20405d98 <_exit+0x586>
2040070a:	2bd1                	jal	20400cde <iprintf>
2040070c:	4008                	lw	a0,0(s0)
2040070e:	39f020ef          	jal	ra,204032ac <__fixsfsi>
20400712:	85aa                	mv	a1,a0
20400714:	d9090513          	addi	a0,s2,-624
20400718:	23d9                	jal	20400cde <iprintf>
2040071a:	204067b7          	lui	a5,0x20406
2040071e:	a9478513          	addi	a0,a5,-1388 # 20405a94 <_exit+0x282>
20400722:	2b75                	jal	20400cde <iprintf>
20400724:	40fa                	lw	ra,156(sp)
20400726:	446a                	lw	s0,152(sp)
20400728:	44da                	lw	s1,148(sp)
2040072a:	494a                	lw	s2,144(sp)
2040072c:	49ba                	lw	s3,140(sp)
2040072e:	4a2a                	lw	s4,136(sp)
20400730:	4a9a                	lw	s5,132(sp)
20400732:	4b0a                	lw	s6,128(sp)
20400734:	5bf6                	lw	s7,124(sp)
20400736:	5c66                	lw	s8,120(sp)
20400738:	5cd6                	lw	s9,116(sp)
2040073a:	5d46                	lw	s10,112(sp)
2040073c:	5db6                	lw	s11,108(sp)
2040073e:	4501                	li	a0,0
20400740:	610d                	addi	sp,sp,160
20400742:	8082                	ret
20400744:	086c                	addi	a1,sp,28
20400746:	4501                	li	a0,0
20400748:	2ce1                	jal	20400a20 <Proc_6>
2040074a:	004b2303          	lw	t1,4(s6)
2040074e:	008b2883          	lw	a7,8(s6)
20400752:	00cb2803          	lw	a6,12(s6)
20400756:	010b2503          	lw	a0,16(s6)
2040075a:	014b2583          	lw	a1,20(s6)
2040075e:	018b2603          	lw	a2,24(s6)
20400762:	01cb5683          	lhu	a3,28(s6)
20400766:	01eb4703          	lbu	a4,30(s6)
2040076a:	0004c783          	lbu	a5,0(s1)
2040076e:	0a85                	addi	s5,s5,1
20400770:	c0e2                	sw	s8,64(sp)
20400772:	c29a                	sw	t1,68(sp)
20400774:	c4c6                	sw	a7,72(sp)
20400776:	c6c2                	sw	a6,76(sp)
20400778:	c8aa                	sw	a0,80(sp)
2040077a:	caae                	sw	a1,84(sp)
2040077c:	ccb2                	sw	a2,88(sp)
2040077e:	04d11e23          	sh	a3,92(sp)
20400782:	04e10f23          	sb	a4,94(sp)
20400786:	013ba023          	sw	s3,0(s7)
2040078a:	0ffafa93          	andi	s5,s5,255
2040078e:	8a4e                	mv	s4,s3
20400790:	bf57ffe3          	bgeu	a5,s5,2040038e <main+0x20e>
20400794:	b921                	j	204003ac <main+0x22c>
20400796:	20406537          	lui	a0,0x20406
2040079a:	8a850513          	addi	a0,a0,-1880 # 204058a8 <_exit+0x96>
2040079e:	2381                	jal	20400cde <iprintf>
204007a0:	204067b7          	lui	a5,0x20406
204007a4:	a9478513          	addi	a0,a5,-1388 # 20405a94 <_exit+0x282>
204007a8:	2b1d                	jal	20400cde <iprintf>
204007aa:	b4d9                	j	20400270 <main+0xf0>
204007ac:	20406537          	lui	a0,0x20406
204007b0:	d0850513          	addi	a0,a0,-760 # 20405d08 <_exit+0x4f6>
204007b4:	232d                	jal	20400cde <iprintf>
204007b6:	20406537          	lui	a0,0x20406
204007ba:	d4050513          	addi	a0,a0,-704 # 20405d40 <_exit+0x52e>
204007be:	2305                	jal	20400cde <iprintf>
204007c0:	a9440513          	addi	a0,s0,-1388
204007c4:	2b29                	jal	20400cde <iprintf>
204007c6:	bfb9                	j	20400724 <main+0x5a4>

204007c8 <register_fini>:
204007c8:	dfc00797          	auipc	a5,0xdfc00
204007cc:	83878793          	addi	a5,a5,-1992 # 0 <__heap_size-0x400>
204007d0:	c799                	beqz	a5,204007de <register_fini+0x16>
204007d2:	00003517          	auipc	a0,0x3
204007d6:	e9050513          	addi	a0,a0,-368 # 20403662 <__libc_fini_array>
204007da:	6470206f          	j	20403620 <atexit>
204007de:	8082                	ret

204007e0 <Proc_2>:
204007e0:	800017b7          	lui	a5,0x80001
204007e4:	9a87c703          	lbu	a4,-1624(a5) # 800009a8 <metal_segment_heap_target_end+0xffffc9a8>
204007e8:	04100793          	li	a5,65
204007ec:	00f70363          	beq	a4,a5,204007f2 <Proc_2+0x12>
204007f0:	8082                	ret
204007f2:	411c                	lw	a5,0(a0)
204007f4:	80001737          	lui	a4,0x80001
204007f8:	9b472703          	lw	a4,-1612(a4) # 800009b4 <metal_segment_heap_target_end+0xffffc9b4>
204007fc:	07a5                	addi	a5,a5,9
204007fe:	8f99                	sub	a5,a5,a4
20400800:	c11c                	sw	a5,0(a0)
20400802:	8082                	ret
20400804:	0000                	unimp
	...

20400808 <Proc_3>:
20400808:	800017b7          	lui	a5,0x80001
2040080c:	9c078793          	addi	a5,a5,-1600 # 800009c0 <metal_segment_heap_target_end+0xffffc9c0>
20400810:	4390                	lw	a2,0(a5)
20400812:	c601                	beqz	a2,2040081a <Proc_3+0x12>
20400814:	4218                	lw	a4,0(a2)
20400816:	c118                	sw	a4,0(a0)
20400818:	4390                	lw	a2,0(a5)
2040081a:	800017b7          	lui	a5,0x80001
2040081e:	9b47a583          	lw	a1,-1612(a5) # 800009b4 <metal_segment_heap_target_end+0xffffc9b4>
20400822:	0631                	addi	a2,a2,12
20400824:	4529                	li	a0,10
20400826:	aa2d                	j	20400960 <Proc_7>

20400828 <Proc_1>:
20400828:	1141                	addi	sp,sp,-16
2040082a:	c04a                	sw	s2,0(sp)
2040082c:	80001937          	lui	s2,0x80001
20400830:	9c090913          	addi	s2,s2,-1600 # 800009c0 <metal_segment_heap_target_end+0xffffc9c0>
20400834:	00092783          	lw	a5,0(s2)
20400838:	c422                	sw	s0,8(sp)
2040083a:	4100                	lw	s0,0(a0)
2040083c:	4398                	lw	a4,0(a5)
2040083e:	c226                	sw	s1,4(sp)
20400840:	0047ae83          	lw	t4,4(a5)
20400844:	0087ae03          	lw	t3,8(a5)
20400848:	0107a303          	lw	t1,16(a5)
2040084c:	0147a883          	lw	a7,20(a5)
20400850:	0187a803          	lw	a6,24(a5)
20400854:	538c                	lw	a1,32(a5)
20400856:	53d0                	lw	a2,36(a5)
20400858:	5794                	lw	a3,40(a5)
2040085a:	c606                	sw	ra,12(sp)
2040085c:	84aa                	mv	s1,a0
2040085e:	4fc8                	lw	a0,28(a5)
20400860:	57dc                	lw	a5,44(a5)
20400862:	c018                	sw	a4,0(s0)
20400864:	4098                	lw	a4,0(s1)
20400866:	cc48                	sw	a0,28(s0)
20400868:	d45c                	sw	a5,44(s0)
2040086a:	01d42223          	sw	t4,4(s0)
2040086e:	4795                	li	a5,5
20400870:	01c42423          	sw	t3,8(s0)
20400874:	00642823          	sw	t1,16(s0)
20400878:	01142a23          	sw	a7,20(s0)
2040087c:	01042c23          	sw	a6,24(s0)
20400880:	d00c                	sw	a1,32(s0)
20400882:	d050                	sw	a2,36(s0)
20400884:	d414                	sw	a3,40(s0)
20400886:	c4dc                	sw	a5,12(s1)
20400888:	c45c                	sw	a5,12(s0)
2040088a:	c018                	sw	a4,0(s0)
2040088c:	8522                	mv	a0,s0
2040088e:	3fad                	jal	20400808 <Proc_3>
20400890:	405c                	lw	a5,4(s0)
20400892:	cfb1                	beqz	a5,204008ee <Proc_1+0xc6>
20400894:	409c                	lw	a5,0(s1)
20400896:	40b2                	lw	ra,12(sp)
20400898:	4422                	lw	s0,8(sp)
2040089a:	0007af83          	lw	t6,0(a5)
2040089e:	0047af03          	lw	t5,4(a5)
204008a2:	0087ae83          	lw	t4,8(a5)
204008a6:	00c7ae03          	lw	t3,12(a5)
204008aa:	0107a303          	lw	t1,16(a5)
204008ae:	0147a883          	lw	a7,20(a5)
204008b2:	0187a803          	lw	a6,24(a5)
204008b6:	4fcc                	lw	a1,28(a5)
204008b8:	5390                	lw	a2,32(a5)
204008ba:	53d4                	lw	a3,36(a5)
204008bc:	5798                	lw	a4,40(a5)
204008be:	57dc                	lw	a5,44(a5)
204008c0:	01f4a023          	sw	t6,0(s1)
204008c4:	01e4a223          	sw	t5,4(s1)
204008c8:	01d4a423          	sw	t4,8(s1)
204008cc:	01c4a623          	sw	t3,12(s1)
204008d0:	0064a823          	sw	t1,16(s1)
204008d4:	0114aa23          	sw	a7,20(s1)
204008d8:	0104ac23          	sw	a6,24(s1)
204008dc:	cccc                	sw	a1,28(s1)
204008de:	d090                	sw	a2,32(s1)
204008e0:	d0d4                	sw	a3,36(s1)
204008e2:	d498                	sw	a4,40(s1)
204008e4:	d4dc                	sw	a5,44(s1)
204008e6:	4902                	lw	s2,0(sp)
204008e8:	4492                	lw	s1,4(sp)
204008ea:	0141                	addi	sp,sp,16
204008ec:	8082                	ret
204008ee:	4488                	lw	a0,8(s1)
204008f0:	4799                	li	a5,6
204008f2:	00840593          	addi	a1,s0,8
204008f6:	c45c                	sw	a5,12(s0)
204008f8:	2225                	jal	20400a20 <Proc_6>
204008fa:	00092783          	lw	a5,0(s2)
204008fe:	4448                	lw	a0,12(s0)
20400900:	00c40613          	addi	a2,s0,12
20400904:	439c                	lw	a5,0(a5)
20400906:	40b2                	lw	ra,12(sp)
20400908:	4492                	lw	s1,4(sp)
2040090a:	c01c                	sw	a5,0(s0)
2040090c:	4422                	lw	s0,8(sp)
2040090e:	4902                	lw	s2,0(sp)
20400910:	45a9                	li	a1,10
20400912:	0141                	addi	sp,sp,16
20400914:	a0b1                	j	20400960 <Proc_7>
	...

20400918 <Proc_4>:
20400918:	800017b7          	lui	a5,0x80001
2040091c:	9a87c783          	lbu	a5,-1624(a5) # 800009a8 <metal_segment_heap_target_end+0xffffc9a8>
20400920:	80001737          	lui	a4,0x80001
20400924:	9a470713          	addi	a4,a4,-1628 # 800009a4 <metal_segment_heap_target_end+0xffffc9a4>
20400928:	4314                	lw	a3,0(a4)
2040092a:	fbf78793          	addi	a5,a5,-65
2040092e:	0017b793          	seqz	a5,a5
20400932:	8fd5                	or	a5,a5,a3
20400934:	c31c                	sw	a5,0(a4)
20400936:	800017b7          	lui	a5,0x80001
2040093a:	04200713          	li	a4,66
2040093e:	9ae784a3          	sb	a4,-1623(a5) # 800009a9 <metal_segment_heap_target_end+0xffffc9a9>
20400942:	8082                	ret
20400944:	0000                	unimp
	...

20400948 <Proc_5>:
20400948:	800017b7          	lui	a5,0x80001
2040094c:	04100713          	li	a4,65
20400950:	9ae78423          	sb	a4,-1624(a5) # 800009a8 <metal_segment_heap_target_end+0xffffc9a8>
20400954:	800017b7          	lui	a5,0x80001
20400958:	9a07a223          	sw	zero,-1628(a5) # 800009a4 <metal_segment_heap_target_end+0xffffc9a4>
2040095c:	8082                	ret
	...

20400960 <Proc_7>:
20400960:	0509                	addi	a0,a0,2
20400962:	95aa                	add	a1,a1,a0
20400964:	c20c                	sw	a1,0(a2)
20400966:	8082                	ret
20400968:	0000                	unimp
	...

2040096c <Proc_8>:
2040096c:	00560713          	addi	a4,a2,5
20400970:	0c800813          	li	a6,200
20400974:	03070833          	mul	a6,a4,a6
20400978:	060a                	slli	a2,a2,0x2
2040097a:	00271793          	slli	a5,a4,0x2
2040097e:	953e                	add	a0,a0,a5
20400980:	c114                	sw	a3,0(a0)
20400982:	dd38                	sw	a4,120(a0)
20400984:	c154                	sw	a3,4(a0)
20400986:	00c807b3          	add	a5,a6,a2
2040098a:	97ae                	add	a5,a5,a1
2040098c:	4b94                	lw	a3,16(a5)
2040098e:	cbd8                	sw	a4,20(a5)
20400990:	cf98                	sw	a4,24(a5)
20400992:	00168713          	addi	a4,a3,1
20400996:	cb98                	sw	a4,16(a5)
20400998:	411c                	lw	a5,0(a0)
2040099a:	95c2                	add	a1,a1,a6
2040099c:	95b2                	add	a1,a1,a2
2040099e:	6605                	lui	a2,0x1
204009a0:	95b2                	add	a1,a1,a2
204009a2:	faf5aa23          	sw	a5,-76(a1)
204009a6:	4715                	li	a4,5
204009a8:	800017b7          	lui	a5,0x80001
204009ac:	9ae7aa23          	sw	a4,-1612(a5) # 800009b4 <metal_segment_heap_target_end+0xffffc9b4>
204009b0:	8082                	ret
	...

204009b4 <Func_1>:
204009b4:	0ff57513          	andi	a0,a0,255
204009b8:	0ff5f593          	andi	a1,a1,255
204009bc:	00b50463          	beq	a0,a1,204009c4 <Func_1+0x10>
204009c0:	4501                	li	a0,0
204009c2:	8082                	ret
204009c4:	800017b7          	lui	a5,0x80001
204009c8:	9aa78423          	sb	a0,-1624(a5) # 800009a8 <metal_segment_heap_target_end+0xffffc9a8>
204009cc:	4505                	li	a0,1
204009ce:	8082                	ret
204009d0:	0000                	unimp
	...

204009d4 <Func_2>:
204009d4:	1141                	addi	sp,sp,-16
204009d6:	c422                	sw	s0,8(sp)
204009d8:	c226                	sw	s1,4(sp)
204009da:	c606                	sw	ra,12(sp)
204009dc:	842a                	mv	s0,a0
204009de:	84ae                	mv	s1,a1
204009e0:	0034c583          	lbu	a1,3(s1)
204009e4:	00244503          	lbu	a0,2(s0)
204009e8:	37f1                	jal	204009b4 <Func_1>
204009ea:	f97d                	bnez	a0,204009e0 <Func_2+0xc>
204009ec:	85a6                	mv	a1,s1
204009ee:	8522                	mv	a0,s0
204009f0:	265d                	jal	20400d96 <strcmp>
204009f2:	4781                	li	a5,0
204009f4:	00a05863          	blez	a0,20400a04 <Func_2+0x30>
204009f8:	800017b7          	lui	a5,0x80001
204009fc:	4729                	li	a4,10
204009fe:	9ae7aa23          	sw	a4,-1612(a5) # 800009b4 <metal_segment_heap_target_end+0xffffc9b4>
20400a02:	4785                	li	a5,1
20400a04:	40b2                	lw	ra,12(sp)
20400a06:	4422                	lw	s0,8(sp)
20400a08:	4492                	lw	s1,4(sp)
20400a0a:	853e                	mv	a0,a5
20400a0c:	0141                	addi	sp,sp,16
20400a0e:	8082                	ret
20400a10:	0000                	unimp
	...

20400a14 <Func_3>:
20400a14:	1579                	addi	a0,a0,-2
20400a16:	00153513          	seqz	a0,a0
20400a1a:	8082                	ret
20400a1c:	0000                	unimp
	...

20400a20 <Proc_6>:
20400a20:	1141                	addi	sp,sp,-16
20400a22:	c422                	sw	s0,8(sp)
20400a24:	c226                	sw	s1,4(sp)
20400a26:	c606                	sw	ra,12(sp)
20400a28:	842a                	mv	s0,a0
20400a2a:	84ae                	mv	s1,a1
20400a2c:	37e5                	jal	20400a14 <Func_3>
20400a2e:	c91d                	beqz	a0,20400a64 <Proc_6+0x44>
20400a30:	c080                	sw	s0,0(s1)
20400a32:	4785                	li	a5,1
20400a34:	02f40d63          	beq	s0,a5,20400a6e <Proc_6+0x4e>
20400a38:	0087de63          	bge	a5,s0,20400a54 <Proc_6+0x34>
20400a3c:	4709                	li	a4,2
20400a3e:	04e40363          	beq	s0,a4,20400a84 <Proc_6+0x64>
20400a42:	4791                	li	a5,4
20400a44:	00f41363          	bne	s0,a5,20400a4a <Proc_6+0x2a>
20400a48:	c098                	sw	a4,0(s1)
20400a4a:	40b2                	lw	ra,12(sp)
20400a4c:	4422                	lw	s0,8(sp)
20400a4e:	4492                	lw	s1,4(sp)
20400a50:	0141                	addi	sp,sp,16
20400a52:	8082                	ret
20400a54:	f87d                	bnez	s0,20400a4a <Proc_6+0x2a>
20400a56:	40b2                	lw	ra,12(sp)
20400a58:	4422                	lw	s0,8(sp)
20400a5a:	0004a023          	sw	zero,0(s1)
20400a5e:	4492                	lw	s1,4(sp)
20400a60:	0141                	addi	sp,sp,16
20400a62:	8082                	ret
20400a64:	478d                	li	a5,3
20400a66:	c09c                	sw	a5,0(s1)
20400a68:	4785                	li	a5,1
20400a6a:	fcf417e3          	bne	s0,a5,20400a38 <Proc_6+0x18>
20400a6e:	800017b7          	lui	a5,0x80001
20400a72:	9b47a703          	lw	a4,-1612(a5) # 800009b4 <metal_segment_heap_target_end+0xffffc9b4>
20400a76:	06400793          	li	a5,100
20400a7a:	fce7cee3          	blt	a5,a4,20400a56 <Proc_6+0x36>
20400a7e:	478d                	li	a5,3
20400a80:	c09c                	sw	a5,0(s1)
20400a82:	b7e1                	j	20400a4a <Proc_6+0x2a>
20400a84:	40b2                	lw	ra,12(sp)
20400a86:	4422                	lw	s0,8(sp)
20400a88:	c09c                	sw	a5,0(s1)
20400a8a:	4492                	lw	s1,4(sp)
20400a8c:	0141                	addi	sp,sp,16
20400a8e:	8082                	ret

20400a90 <malloc>:
20400a90:	5fc00797          	auipc	a5,0x5fc00
20400a94:	ef878793          	addi	a5,a5,-264 # 80000988 <_impure_ptr>
20400a98:	85aa                	mv	a1,a0
20400a9a:	4388                	lw	a0,0(a5)
20400a9c:	a295                	j	20400c00 <_malloc_r>

20400a9e <memcpy>:
20400a9e:	00a5c7b3          	xor	a5,a1,a0
20400aa2:	8b8d                	andi	a5,a5,3
20400aa4:	00c50733          	add	a4,a0,a2
20400aa8:	e781                	bnez	a5,20400ab0 <memcpy+0x12>
20400aaa:	478d                	li	a5,3
20400aac:	00c7ee63          	bltu	a5,a2,20400ac8 <memcpy+0x2a>
20400ab0:	87aa                	mv	a5,a0
20400ab2:	0ae57063          	bgeu	a0,a4,20400b52 <memcpy+0xb4>
20400ab6:	0005c683          	lbu	a3,0(a1)
20400aba:	0785                	addi	a5,a5,1
20400abc:	0585                	addi	a1,a1,1
20400abe:	fed78fa3          	sb	a3,-1(a5)
20400ac2:	fee7eae3          	bltu	a5,a4,20400ab6 <memcpy+0x18>
20400ac6:	8082                	ret
20400ac8:	00357693          	andi	a3,a0,3
20400acc:	87aa                	mv	a5,a0
20400ace:	ca91                	beqz	a3,20400ae2 <memcpy+0x44>
20400ad0:	0005c683          	lbu	a3,0(a1)
20400ad4:	0785                	addi	a5,a5,1
20400ad6:	0585                	addi	a1,a1,1
20400ad8:	fed78fa3          	sb	a3,-1(a5)
20400adc:	0037f693          	andi	a3,a5,3
20400ae0:	b7fd                	j	20400ace <memcpy+0x30>
20400ae2:	ffc77693          	andi	a3,a4,-4
20400ae6:	fe068613          	addi	a2,a3,-32
20400aea:	06c7f063          	bgeu	a5,a2,20400b4a <memcpy+0xac>
20400aee:	0005a383          	lw	t2,0(a1)
20400af2:	0045a283          	lw	t0,4(a1)
20400af6:	0085af83          	lw	t6,8(a1)
20400afa:	00c5af03          	lw	t5,12(a1)
20400afe:	0105ae83          	lw	t4,16(a1)
20400b02:	0145ae03          	lw	t3,20(a1)
20400b06:	0185a303          	lw	t1,24(a1)
20400b0a:	01c5a883          	lw	a7,28(a1)
20400b0e:	02458593          	addi	a1,a1,36
20400b12:	0077a023          	sw	t2,0(a5)
20400b16:	ffc5a803          	lw	a6,-4(a1)
20400b1a:	0057a223          	sw	t0,4(a5)
20400b1e:	01f7a423          	sw	t6,8(a5)
20400b22:	01e7a623          	sw	t5,12(a5)
20400b26:	01d7a823          	sw	t4,16(a5)
20400b2a:	01c7aa23          	sw	t3,20(a5)
20400b2e:	0067ac23          	sw	t1,24(a5)
20400b32:	0117ae23          	sw	a7,28(a5)
20400b36:	02478793          	addi	a5,a5,36
20400b3a:	ff07ae23          	sw	a6,-4(a5)
20400b3e:	b775                	j	20400aea <memcpy+0x4c>
20400b40:	4190                	lw	a2,0(a1)
20400b42:	0791                	addi	a5,a5,4
20400b44:	0591                	addi	a1,a1,4
20400b46:	fec7ae23          	sw	a2,-4(a5)
20400b4a:	fed7ebe3          	bltu	a5,a3,20400b40 <memcpy+0xa2>
20400b4e:	f6e7e4e3          	bltu	a5,a4,20400ab6 <memcpy+0x18>
20400b52:	8082                	ret

20400b54 <_free_r>:
20400b54:	c5cd                	beqz	a1,20400bfe <_free_r+0xaa>
20400b56:	ffc5a783          	lw	a5,-4(a1)
20400b5a:	1141                	addi	sp,sp,-16
20400b5c:	c422                	sw	s0,8(sp)
20400b5e:	c606                	sw	ra,12(sp)
20400b60:	c226                	sw	s1,4(sp)
20400b62:	ffc58413          	addi	s0,a1,-4
20400b66:	0007d363          	bgez	a5,20400b6c <_free_r+0x18>
20400b6a:	943e                	add	s0,s0,a5
20400b6c:	84aa                	mv	s1,a0
20400b6e:	25d5                	jal	20401252 <__malloc_lock>
20400b70:	5fc00797          	auipc	a5,0x5fc00
20400b74:	e5c78793          	addi	a5,a5,-420 # 800009cc <__malloc_free_list>
20400b78:	439c                	lw	a5,0(a5)
20400b7a:	ef89                	bnez	a5,20400b94 <_free_r+0x40>
20400b7c:	00042223          	sw	zero,4(s0)
20400b80:	5fc00797          	auipc	a5,0x5fc00
20400b84:	e487a623          	sw	s0,-436(a5) # 800009cc <__malloc_free_list>
20400b88:	4422                	lw	s0,8(sp)
20400b8a:	40b2                	lw	ra,12(sp)
20400b8c:	8526                	mv	a0,s1
20400b8e:	4492                	lw	s1,4(sp)
20400b90:	0141                	addi	sp,sp,16
20400b92:	a5c9                	j	20401254 <__malloc_unlock>
20400b94:	00f47e63          	bgeu	s0,a5,20400bb0 <_free_r+0x5c>
20400b98:	4014                	lw	a3,0(s0)
20400b9a:	00d40733          	add	a4,s0,a3
20400b9e:	00e79663          	bne	a5,a4,20400baa <_free_r+0x56>
20400ba2:	4398                	lw	a4,0(a5)
20400ba4:	43dc                	lw	a5,4(a5)
20400ba6:	9736                	add	a4,a4,a3
20400ba8:	c018                	sw	a4,0(s0)
20400baa:	c05c                	sw	a5,4(s0)
20400bac:	bfd1                	j	20400b80 <_free_r+0x2c>
20400bae:	87ba                	mv	a5,a4
20400bb0:	43d8                	lw	a4,4(a5)
20400bb2:	c319                	beqz	a4,20400bb8 <_free_r+0x64>
20400bb4:	fee47de3          	bgeu	s0,a4,20400bae <_free_r+0x5a>
20400bb8:	4394                	lw	a3,0(a5)
20400bba:	00d78633          	add	a2,a5,a3
20400bbe:	00861f63          	bne	a2,s0,20400bdc <_free_r+0x88>
20400bc2:	4010                	lw	a2,0(s0)
20400bc4:	96b2                	add	a3,a3,a2
20400bc6:	c394                	sw	a3,0(a5)
20400bc8:	00d78633          	add	a2,a5,a3
20400bcc:	fac71ee3          	bne	a4,a2,20400b88 <_free_r+0x34>
20400bd0:	4310                	lw	a2,0(a4)
20400bd2:	4358                	lw	a4,4(a4)
20400bd4:	96b2                	add	a3,a3,a2
20400bd6:	c394                	sw	a3,0(a5)
20400bd8:	c3d8                	sw	a4,4(a5)
20400bda:	b77d                	j	20400b88 <_free_r+0x34>
20400bdc:	00c47563          	bgeu	s0,a2,20400be6 <_free_r+0x92>
20400be0:	47b1                	li	a5,12
20400be2:	c09c                	sw	a5,0(s1)
20400be4:	b755                	j	20400b88 <_free_r+0x34>
20400be6:	4010                	lw	a2,0(s0)
20400be8:	00c406b3          	add	a3,s0,a2
20400bec:	00d71663          	bne	a4,a3,20400bf8 <_free_r+0xa4>
20400bf0:	4314                	lw	a3,0(a4)
20400bf2:	4358                	lw	a4,4(a4)
20400bf4:	96b2                	add	a3,a3,a2
20400bf6:	c014                	sw	a3,0(s0)
20400bf8:	c058                	sw	a4,4(s0)
20400bfa:	c3c0                	sw	s0,4(a5)
20400bfc:	b771                	j	20400b88 <_free_r+0x34>
20400bfe:	8082                	ret

20400c00 <_malloc_r>:
20400c00:	1101                	addi	sp,sp,-32
20400c02:	ca26                	sw	s1,20(sp)
20400c04:	00358493          	addi	s1,a1,3
20400c08:	98f1                	andi	s1,s1,-4
20400c0a:	ce06                	sw	ra,28(sp)
20400c0c:	cc22                	sw	s0,24(sp)
20400c0e:	c84a                	sw	s2,16(sp)
20400c10:	c64e                	sw	s3,12(sp)
20400c12:	04a1                	addi	s1,s1,8
20400c14:	47b1                	li	a5,12
20400c16:	04f4f763          	bgeu	s1,a5,20400c64 <_malloc_r+0x64>
20400c1a:	44b1                	li	s1,12
20400c1c:	04b4e663          	bltu	s1,a1,20400c68 <_malloc_r+0x68>
20400c20:	892a                	mv	s2,a0
20400c22:	2d05                	jal	20401252 <__malloc_lock>
20400c24:	5fc00797          	auipc	a5,0x5fc00
20400c28:	da878793          	addi	a5,a5,-600 # 800009cc <__malloc_free_list>
20400c2c:	4398                	lw	a4,0(a5)
20400c2e:	843a                	mv	s0,a4
20400c30:	e431                	bnez	s0,20400c7c <_malloc_r+0x7c>
20400c32:	5fc00797          	auipc	a5,0x5fc00
20400c36:	d9e78793          	addi	a5,a5,-610 # 800009d0 <__malloc_sbrk_start>
20400c3a:	439c                	lw	a5,0(a5)
20400c3c:	eb81                	bnez	a5,20400c4c <_malloc_r+0x4c>
20400c3e:	4581                	li	a1,0
20400c40:	854a                	mv	a0,s2
20400c42:	28f9                	jal	20400d20 <_sbrk_r>
20400c44:	5fc00797          	auipc	a5,0x5fc00
20400c48:	d8a7a623          	sw	a0,-628(a5) # 800009d0 <__malloc_sbrk_start>
20400c4c:	85a6                	mv	a1,s1
20400c4e:	854a                	mv	a0,s2
20400c50:	28c1                	jal	20400d20 <_sbrk_r>
20400c52:	59fd                	li	s3,-1
20400c54:	07351963          	bne	a0,s3,20400cc6 <_malloc_r+0xc6>
20400c58:	47b1                	li	a5,12
20400c5a:	00f92023          	sw	a5,0(s2)
20400c5e:	854a                	mv	a0,s2
20400c60:	2bd5                	jal	20401254 <__malloc_unlock>
20400c62:	a029                	j	20400c6c <_malloc_r+0x6c>
20400c64:	fa04dce3          	bgez	s1,20400c1c <_malloc_r+0x1c>
20400c68:	47b1                	li	a5,12
20400c6a:	c11c                	sw	a5,0(a0)
20400c6c:	4501                	li	a0,0
20400c6e:	40f2                	lw	ra,28(sp)
20400c70:	4462                	lw	s0,24(sp)
20400c72:	44d2                	lw	s1,20(sp)
20400c74:	4942                	lw	s2,16(sp)
20400c76:	49b2                	lw	s3,12(sp)
20400c78:	6105                	addi	sp,sp,32
20400c7a:	8082                	ret
20400c7c:	401c                	lw	a5,0(s0)
20400c7e:	8f85                	sub	a5,a5,s1
20400c80:	0407c063          	bltz	a5,20400cc0 <_malloc_r+0xc0>
20400c84:	46ad                	li	a3,11
20400c86:	00f6f663          	bgeu	a3,a5,20400c92 <_malloc_r+0x92>
20400c8a:	c01c                	sw	a5,0(s0)
20400c8c:	943e                	add	s0,s0,a5
20400c8e:	c004                	sw	s1,0(s0)
20400c90:	a801                	j	20400ca0 <_malloc_r+0xa0>
20400c92:	405c                	lw	a5,4(s0)
20400c94:	02871463          	bne	a4,s0,20400cbc <_malloc_r+0xbc>
20400c98:	5fc00717          	auipc	a4,0x5fc00
20400c9c:	d2f72a23          	sw	a5,-716(a4) # 800009cc <__malloc_free_list>
20400ca0:	854a                	mv	a0,s2
20400ca2:	2b4d                	jal	20401254 <__malloc_unlock>
20400ca4:	00b40513          	addi	a0,s0,11
20400ca8:	00440793          	addi	a5,s0,4
20400cac:	9961                	andi	a0,a0,-8
20400cae:	40f50733          	sub	a4,a0,a5
20400cb2:	df55                	beqz	a4,20400c6e <_malloc_r+0x6e>
20400cb4:	943a                	add	s0,s0,a4
20400cb6:	8f89                	sub	a5,a5,a0
20400cb8:	c01c                	sw	a5,0(s0)
20400cba:	bf55                	j	20400c6e <_malloc_r+0x6e>
20400cbc:	c35c                	sw	a5,4(a4)
20400cbe:	b7cd                	j	20400ca0 <_malloc_r+0xa0>
20400cc0:	8722                	mv	a4,s0
20400cc2:	4040                	lw	s0,4(s0)
20400cc4:	b7b5                	j	20400c30 <_malloc_r+0x30>
20400cc6:	00350413          	addi	s0,a0,3
20400cca:	9871                	andi	s0,s0,-4
20400ccc:	fc8501e3          	beq	a0,s0,20400c8e <_malloc_r+0x8e>
20400cd0:	40a405b3          	sub	a1,s0,a0
20400cd4:	854a                	mv	a0,s2
20400cd6:	20a9                	jal	20400d20 <_sbrk_r>
20400cd8:	fb351be3          	bne	a0,s3,20400c8e <_malloc_r+0x8e>
20400cdc:	bfb5                	j	20400c58 <_malloc_r+0x58>

20400cde <iprintf>:
20400cde:	7139                	addi	sp,sp,-64
20400ce0:	da3e                	sw	a5,52(sp)
20400ce2:	d22e                	sw	a1,36(sp)
20400ce4:	d432                	sw	a2,40(sp)
20400ce6:	d636                	sw	a3,44(sp)
20400ce8:	d83a                	sw	a4,48(sp)
20400cea:	dc42                	sw	a6,56(sp)
20400cec:	de46                	sw	a7,60(sp)
20400cee:	5fc00797          	auipc	a5,0x5fc00
20400cf2:	c9a78793          	addi	a5,a5,-870 # 80000988 <_impure_ptr>
20400cf6:	cc22                	sw	s0,24(sp)
20400cf8:	4380                	lw	s0,0(a5)
20400cfa:	ca26                	sw	s1,20(sp)
20400cfc:	ce06                	sw	ra,28(sp)
20400cfe:	84aa                	mv	s1,a0
20400d00:	c409                	beqz	s0,20400d0a <iprintf+0x2c>
20400d02:	4c1c                	lw	a5,24(s0)
20400d04:	e399                	bnez	a5,20400d0a <iprintf+0x2c>
20400d06:	8522                	mv	a0,s0
20400d08:	2c61                	jal	20400fa0 <__sinit>
20400d0a:	440c                	lw	a1,8(s0)
20400d0c:	1054                	addi	a3,sp,36
20400d0e:	8626                	mv	a2,s1
20400d10:	8522                	mv	a0,s0
20400d12:	c636                	sw	a3,12(sp)
20400d14:	237d                	jal	204012c2 <_vfiprintf_r>
20400d16:	40f2                	lw	ra,28(sp)
20400d18:	4462                	lw	s0,24(sp)
20400d1a:	44d2                	lw	s1,20(sp)
20400d1c:	6121                	addi	sp,sp,64
20400d1e:	8082                	ret

20400d20 <_sbrk_r>:
20400d20:	1141                	addi	sp,sp,-16
20400d22:	c422                	sw	s0,8(sp)
20400d24:	842a                	mv	s0,a0
20400d26:	852e                	mv	a0,a1
20400d28:	5fc02797          	auipc	a5,0x5fc02
20400d2c:	5007aa23          	sw	zero,1300(a5) # 8000323c <errno>
20400d30:	c606                	sw	ra,12(sp)
20400d32:	005020ef          	jal	ra,20403536 <_sbrk>
20400d36:	57fd                	li	a5,-1
20400d38:	00f51963          	bne	a0,a5,20400d4a <_sbrk_r+0x2a>
20400d3c:	5fc02797          	auipc	a5,0x5fc02
20400d40:	50078793          	addi	a5,a5,1280 # 8000323c <errno>
20400d44:	439c                	lw	a5,0(a5)
20400d46:	c391                	beqz	a5,20400d4a <_sbrk_r+0x2a>
20400d48:	c01c                	sw	a5,0(s0)
20400d4a:	40b2                	lw	ra,12(sp)
20400d4c:	4422                	lw	s0,8(sp)
20400d4e:	0141                	addi	sp,sp,16
20400d50:	8082                	ret

20400d52 <iscanf>:
20400d52:	7139                	addi	sp,sp,-64
20400d54:	da3e                	sw	a5,52(sp)
20400d56:	d22e                	sw	a1,36(sp)
20400d58:	d432                	sw	a2,40(sp)
20400d5a:	d636                	sw	a3,44(sp)
20400d5c:	d83a                	sw	a4,48(sp)
20400d5e:	dc42                	sw	a6,56(sp)
20400d60:	de46                	sw	a7,60(sp)
20400d62:	5fc00797          	auipc	a5,0x5fc00
20400d66:	c2678793          	addi	a5,a5,-986 # 80000988 <_impure_ptr>
20400d6a:	cc22                	sw	s0,24(sp)
20400d6c:	4380                	lw	s0,0(a5)
20400d6e:	ca26                	sw	s1,20(sp)
20400d70:	ce06                	sw	ra,28(sp)
20400d72:	84aa                	mv	s1,a0
20400d74:	c409                	beqz	s0,20400d7e <iscanf+0x2c>
20400d76:	4c1c                	lw	a5,24(s0)
20400d78:	e399                	bnez	a5,20400d7e <iscanf+0x2c>
20400d7a:	8522                	mv	a0,s0
20400d7c:	2415                	jal	20400fa0 <__sinit>
20400d7e:	404c                	lw	a1,4(s0)
20400d80:	1054                	addi	a3,sp,36
20400d82:	8626                	mv	a2,s1
20400d84:	8522                	mv	a0,s0
20400d86:	c636                	sw	a3,12(sp)
20400d88:	395000ef          	jal	ra,2040191c <_vfiscanf_r>
20400d8c:	40f2                	lw	ra,28(sp)
20400d8e:	4462                	lw	s0,24(sp)
20400d90:	44d2                	lw	s1,20(sp)
20400d92:	6121                	addi	sp,sp,64
20400d94:	8082                	ret

20400d96 <strcmp>:
20400d96:	00b56733          	or	a4,a0,a1
20400d9a:	53fd                	li	t2,-1
20400d9c:	8b0d                	andi	a4,a4,3
20400d9e:	e779                	bnez	a4,20400e6c <strcmp+0xd6>
20400da0:	7f7f87b7          	lui	a5,0x7f7f8
20400da4:	f7f78793          	addi	a5,a5,-129 # 7f7f7f7f <__init_array_end+0x5f3f1ba7>
20400da8:	4110                	lw	a2,0(a0)
20400daa:	4194                	lw	a3,0(a1)
20400dac:	00f672b3          	and	t0,a2,a5
20400db0:	00f66333          	or	t1,a2,a5
20400db4:	92be                	add	t0,t0,a5
20400db6:	0062e2b3          	or	t0,t0,t1
20400dba:	0c729763          	bne	t0,t2,20400e88 <strcmp+0xf2>
20400dbe:	06d61863          	bne	a2,a3,20400e2e <strcmp+0x98>
20400dc2:	4150                	lw	a2,4(a0)
20400dc4:	41d4                	lw	a3,4(a1)
20400dc6:	00f672b3          	and	t0,a2,a5
20400dca:	00f66333          	or	t1,a2,a5
20400dce:	92be                	add	t0,t0,a5
20400dd0:	0062e2b3          	or	t0,t0,t1
20400dd4:	0a729863          	bne	t0,t2,20400e84 <strcmp+0xee>
20400dd8:	04d61b63          	bne	a2,a3,20400e2e <strcmp+0x98>
20400ddc:	4510                	lw	a2,8(a0)
20400dde:	4594                	lw	a3,8(a1)
20400de0:	00f672b3          	and	t0,a2,a5
20400de4:	00f66333          	or	t1,a2,a5
20400de8:	92be                	add	t0,t0,a5
20400dea:	0062e2b3          	or	t0,t0,t1
20400dee:	0a729163          	bne	t0,t2,20400e90 <strcmp+0xfa>
20400df2:	02d61e63          	bne	a2,a3,20400e2e <strcmp+0x98>
20400df6:	4550                	lw	a2,12(a0)
20400df8:	45d4                	lw	a3,12(a1)
20400dfa:	00f672b3          	and	t0,a2,a5
20400dfe:	00f66333          	or	t1,a2,a5
20400e02:	92be                	add	t0,t0,a5
20400e04:	0062e2b3          	or	t0,t0,t1
20400e08:	08729a63          	bne	t0,t2,20400e9c <strcmp+0x106>
20400e0c:	02d61163          	bne	a2,a3,20400e2e <strcmp+0x98>
20400e10:	4910                	lw	a2,16(a0)
20400e12:	4994                	lw	a3,16(a1)
20400e14:	00f672b3          	and	t0,a2,a5
20400e18:	00f66333          	or	t1,a2,a5
20400e1c:	92be                	add	t0,t0,a5
20400e1e:	0062e2b3          	or	t0,t0,t1
20400e22:	08729363          	bne	t0,t2,20400ea8 <strcmp+0x112>
20400e26:	0551                	addi	a0,a0,20
20400e28:	05d1                	addi	a1,a1,20
20400e2a:	f6d60fe3          	beq	a2,a3,20400da8 <strcmp+0x12>
20400e2e:	01061713          	slli	a4,a2,0x10
20400e32:	01069793          	slli	a5,a3,0x10
20400e36:	00f71c63          	bne	a4,a5,20400e4e <strcmp+0xb8>
20400e3a:	01065713          	srli	a4,a2,0x10
20400e3e:	0106d793          	srli	a5,a3,0x10
20400e42:	40f70533          	sub	a0,a4,a5
20400e46:	0ff57593          	andi	a1,a0,255
20400e4a:	e991                	bnez	a1,20400e5e <strcmp+0xc8>
20400e4c:	8082                	ret
20400e4e:	8341                	srli	a4,a4,0x10
20400e50:	83c1                	srli	a5,a5,0x10
20400e52:	40f70533          	sub	a0,a4,a5
20400e56:	0ff57593          	andi	a1,a0,255
20400e5a:	e191                	bnez	a1,20400e5e <strcmp+0xc8>
20400e5c:	8082                	ret
20400e5e:	0ff77713          	andi	a4,a4,255
20400e62:	0ff7f793          	andi	a5,a5,255
20400e66:	40f70533          	sub	a0,a4,a5
20400e6a:	8082                	ret
20400e6c:	00054603          	lbu	a2,0(a0)
20400e70:	0005c683          	lbu	a3,0(a1)
20400e74:	0505                	addi	a0,a0,1
20400e76:	0585                	addi	a1,a1,1
20400e78:	00d61363          	bne	a2,a3,20400e7e <strcmp+0xe8>
20400e7c:	fa65                	bnez	a2,20400e6c <strcmp+0xd6>
20400e7e:	40d60533          	sub	a0,a2,a3
20400e82:	8082                	ret
20400e84:	0511                	addi	a0,a0,4
20400e86:	0591                	addi	a1,a1,4
20400e88:	fed612e3          	bne	a2,a3,20400e6c <strcmp+0xd6>
20400e8c:	4501                	li	a0,0
20400e8e:	8082                	ret
20400e90:	0521                	addi	a0,a0,8
20400e92:	05a1                	addi	a1,a1,8
20400e94:	fcd61ce3          	bne	a2,a3,20400e6c <strcmp+0xd6>
20400e98:	4501                	li	a0,0
20400e9a:	8082                	ret
20400e9c:	0531                	addi	a0,a0,12
20400e9e:	05b1                	addi	a1,a1,12
20400ea0:	fcd616e3          	bne	a2,a3,20400e6c <strcmp+0xd6>
20400ea4:	4501                	li	a0,0
20400ea6:	8082                	ret
20400ea8:	0541                	addi	a0,a0,16
20400eaa:	05c1                	addi	a1,a1,16
20400eac:	fcd610e3          	bne	a2,a3,20400e6c <strcmp+0xd6>
20400eb0:	4501                	li	a0,0
20400eb2:	8082                	ret

20400eb4 <time>:
20400eb4:	1101                	addi	sp,sp,-32
20400eb6:	5fc00797          	auipc	a5,0x5fc00
20400eba:	ad278793          	addi	a5,a5,-1326 # 80000988 <_impure_ptr>
20400ebe:	cc22                	sw	s0,24(sp)
20400ec0:	842a                	mv	s0,a0
20400ec2:	4388                	lw	a0,0(a5)
20400ec4:	4601                	li	a2,0
20400ec6:	858a                	mv	a1,sp
20400ec8:	ce06                	sw	ra,28(sp)
20400eca:	2475                	jal	20401176 <_gettimeofday_r>
20400ecc:	00055663          	bgez	a0,20400ed8 <time+0x24>
20400ed0:	577d                	li	a4,-1
20400ed2:	57fd                	li	a5,-1
20400ed4:	c03a                	sw	a4,0(sp)
20400ed6:	c23e                	sw	a5,4(sp)
20400ed8:	4502                	lw	a0,0(sp)
20400eda:	4592                	lw	a1,4(sp)
20400edc:	c019                	beqz	s0,20400ee2 <time+0x2e>
20400ede:	c008                	sw	a0,0(s0)
20400ee0:	c04c                	sw	a1,4(s0)
20400ee2:	40f2                	lw	ra,28(sp)
20400ee4:	4462                	lw	s0,24(sp)
20400ee6:	6105                	addi	sp,sp,32
20400ee8:	8082                	ret

20400eea <std>:
20400eea:	1141                	addi	sp,sp,-16
20400eec:	c422                	sw	s0,8(sp)
20400eee:	c606                	sw	ra,12(sp)
20400ef0:	842a                	mv	s0,a0
20400ef2:	00b51623          	sh	a1,12(a0)
20400ef6:	00c51723          	sh	a2,14(a0)
20400efa:	00052023          	sw	zero,0(a0)
20400efe:	00052223          	sw	zero,4(a0)
20400f02:	00052423          	sw	zero,8(a0)
20400f06:	06052223          	sw	zero,100(a0)
20400f0a:	00052823          	sw	zero,16(a0)
20400f0e:	00052a23          	sw	zero,20(a0)
20400f12:	00052c23          	sw	zero,24(a0)
20400f16:	4621                	li	a2,8
20400f18:	4581                	li	a1,0
20400f1a:	05c50513          	addi	a0,a0,92
20400f1e:	2471                	jal	204011aa <memset>
20400f20:	00001797          	auipc	a5,0x1
20400f24:	c4878793          	addi	a5,a5,-952 # 20401b68 <__sread>
20400f28:	d05c                	sw	a5,36(s0)
20400f2a:	00001797          	auipc	a5,0x1
20400f2e:	c7078793          	addi	a5,a5,-912 # 20401b9a <__swrite>
20400f32:	d41c                	sw	a5,40(s0)
20400f34:	00001797          	auipc	a5,0x1
20400f38:	cb478793          	addi	a5,a5,-844 # 20401be8 <__sseek>
20400f3c:	d45c                	sw	a5,44(s0)
20400f3e:	00001797          	auipc	a5,0x1
20400f42:	ce078793          	addi	a5,a5,-800 # 20401c1e <__sclose>
20400f46:	d000                	sw	s0,32(s0)
20400f48:	d81c                	sw	a5,48(s0)
20400f4a:	40b2                	lw	ra,12(sp)
20400f4c:	4422                	lw	s0,8(sp)
20400f4e:	0141                	addi	sp,sp,16
20400f50:	8082                	ret

20400f52 <_cleanup_r>:
20400f52:	00001597          	auipc	a1,0x1
20400f56:	1f058593          	addi	a1,a1,496 # 20402142 <_fflush_r>
20400f5a:	aa45                	j	2040110a <_fwalk_reent>

20400f5c <__sfmoreglue>:
20400f5c:	1141                	addi	sp,sp,-16
20400f5e:	c226                	sw	s1,4(sp)
20400f60:	06800613          	li	a2,104
20400f64:	fff58493          	addi	s1,a1,-1
20400f68:	02c484b3          	mul	s1,s1,a2
20400f6c:	c04a                	sw	s2,0(sp)
20400f6e:	892e                	mv	s2,a1
20400f70:	c422                	sw	s0,8(sp)
20400f72:	c606                	sw	ra,12(sp)
20400f74:	07448593          	addi	a1,s1,116
20400f78:	3161                	jal	20400c00 <_malloc_r>
20400f7a:	842a                	mv	s0,a0
20400f7c:	c919                	beqz	a0,20400f92 <__sfmoreglue+0x36>
20400f7e:	00052023          	sw	zero,0(a0)
20400f82:	01252223          	sw	s2,4(a0)
20400f86:	0531                	addi	a0,a0,12
20400f88:	c408                	sw	a0,8(s0)
20400f8a:	06848613          	addi	a2,s1,104
20400f8e:	4581                	li	a1,0
20400f90:	2c29                	jal	204011aa <memset>
20400f92:	8522                	mv	a0,s0
20400f94:	40b2                	lw	ra,12(sp)
20400f96:	4422                	lw	s0,8(sp)
20400f98:	4492                	lw	s1,4(sp)
20400f9a:	4902                	lw	s2,0(sp)
20400f9c:	0141                	addi	sp,sp,16
20400f9e:	8082                	ret

20400fa0 <__sinit>:
20400fa0:	4d1c                	lw	a5,24(a0)
20400fa2:	e3bd                	bnez	a5,20401008 <__sinit+0x68>
20400fa4:	1141                	addi	sp,sp,-16
20400fa6:	c606                	sw	ra,12(sp)
20400fa8:	c422                	sw	s0,8(sp)
20400faa:	00000797          	auipc	a5,0x0
20400fae:	fa878793          	addi	a5,a5,-88 # 20400f52 <_cleanup_r>
20400fb2:	d51c                	sw	a5,40(a0)
20400fb4:	5fc00797          	auipc	a5,0x5fc00
20400fb8:	9d878793          	addi	a5,a5,-1576 # 8000098c <_global_impure_ptr>
20400fbc:	439c                	lw	a5,0(a5)
20400fbe:	04052423          	sw	zero,72(a0)
20400fc2:	04052623          	sw	zero,76(a0)
20400fc6:	04052823          	sw	zero,80(a0)
20400fca:	00f51463          	bne	a0,a5,20400fd2 <__sinit+0x32>
20400fce:	4785                	li	a5,1
20400fd0:	cd1c                	sw	a5,24(a0)
20400fd2:	842a                	mv	s0,a0
20400fd4:	281d                	jal	2040100a <__sfp>
20400fd6:	c048                	sw	a0,4(s0)
20400fd8:	8522                	mv	a0,s0
20400fda:	2805                	jal	2040100a <__sfp>
20400fdc:	c408                	sw	a0,8(s0)
20400fde:	8522                	mv	a0,s0
20400fe0:	202d                	jal	2040100a <__sfp>
20400fe2:	c448                	sw	a0,12(s0)
20400fe4:	4048                	lw	a0,4(s0)
20400fe6:	4601                	li	a2,0
20400fe8:	4591                	li	a1,4
20400fea:	3701                	jal	20400eea <std>
20400fec:	4408                	lw	a0,8(s0)
20400fee:	4605                	li	a2,1
20400ff0:	45a5                	li	a1,9
20400ff2:	3de5                	jal	20400eea <std>
20400ff4:	4448                	lw	a0,12(s0)
20400ff6:	4609                	li	a2,2
20400ff8:	45c9                	li	a1,18
20400ffa:	3dc5                	jal	20400eea <std>
20400ffc:	4785                	li	a5,1
20400ffe:	cc1c                	sw	a5,24(s0)
20401000:	40b2                	lw	ra,12(sp)
20401002:	4422                	lw	s0,8(sp)
20401004:	0141                	addi	sp,sp,16
20401006:	8082                	ret
20401008:	8082                	ret

2040100a <__sfp>:
2040100a:	1141                	addi	sp,sp,-16
2040100c:	5fc00797          	auipc	a5,0x5fc00
20401010:	98078793          	addi	a5,a5,-1664 # 8000098c <_global_impure_ptr>
20401014:	c226                	sw	s1,4(sp)
20401016:	4384                	lw	s1,0(a5)
20401018:	c04a                	sw	s2,0(sp)
2040101a:	c606                	sw	ra,12(sp)
2040101c:	4c9c                	lw	a5,24(s1)
2040101e:	c422                	sw	s0,8(sp)
20401020:	892a                	mv	s2,a0
20401022:	e399                	bnez	a5,20401028 <__sfp+0x1e>
20401024:	8526                	mv	a0,s1
20401026:	3fad                	jal	20400fa0 <__sinit>
20401028:	04848493          	addi	s1,s1,72
2040102c:	4480                	lw	s0,8(s1)
2040102e:	40dc                	lw	a5,4(s1)
20401030:	17fd                	addi	a5,a5,-1
20401032:	0007d663          	bgez	a5,2040103e <__sfp+0x34>
20401036:	409c                	lw	a5,0(s1)
20401038:	cfb1                	beqz	a5,20401094 <__sfp+0x8a>
2040103a:	4084                	lw	s1,0(s1)
2040103c:	bfc5                	j	2040102c <__sfp+0x22>
2040103e:	00c41703          	lh	a4,12(s0)
20401042:	e731                	bnez	a4,2040108e <__sfp+0x84>
20401044:	77c1                	lui	a5,0xffff0
20401046:	0785                	addi	a5,a5,1
20401048:	06042223          	sw	zero,100(s0)
2040104c:	00042023          	sw	zero,0(s0)
20401050:	00042223          	sw	zero,4(s0)
20401054:	00042423          	sw	zero,8(s0)
20401058:	c45c                	sw	a5,12(s0)
2040105a:	00042823          	sw	zero,16(s0)
2040105e:	00042a23          	sw	zero,20(s0)
20401062:	00042c23          	sw	zero,24(s0)
20401066:	4621                	li	a2,8
20401068:	4581                	li	a1,0
2040106a:	05c40513          	addi	a0,s0,92
2040106e:	2a35                	jal	204011aa <memset>
20401070:	02042a23          	sw	zero,52(s0)
20401074:	02042c23          	sw	zero,56(s0)
20401078:	04042423          	sw	zero,72(s0)
2040107c:	04042623          	sw	zero,76(s0)
20401080:	8522                	mv	a0,s0
20401082:	40b2                	lw	ra,12(sp)
20401084:	4422                	lw	s0,8(sp)
20401086:	4492                	lw	s1,4(sp)
20401088:	4902                	lw	s2,0(sp)
2040108a:	0141                	addi	sp,sp,16
2040108c:	8082                	ret
2040108e:	06840413          	addi	s0,s0,104
20401092:	bf79                	j	20401030 <__sfp+0x26>
20401094:	4591                	li	a1,4
20401096:	854a                	mv	a0,s2
20401098:	35d1                	jal	20400f5c <__sfmoreglue>
2040109a:	c088                	sw	a0,0(s1)
2040109c:	fd59                	bnez	a0,2040103a <__sfp+0x30>
2040109e:	47b1                	li	a5,12
204010a0:	00f92023          	sw	a5,0(s2)
204010a4:	4401                	li	s0,0
204010a6:	bfe9                	j	20401080 <__sfp+0x76>

204010a8 <_fwalk>:
204010a8:	7179                	addi	sp,sp,-48
204010aa:	d422                	sw	s0,40(sp)
204010ac:	d04a                	sw	s2,32(sp)
204010ae:	cc52                	sw	s4,24(sp)
204010b0:	ca56                	sw	s5,20(sp)
204010b2:	d606                	sw	ra,44(sp)
204010b4:	d226                	sw	s1,36(sp)
204010b6:	ce4e                	sw	s3,28(sp)
204010b8:	04850413          	addi	s0,a0,72
204010bc:	4901                	li	s2,0
204010be:	4a05                	li	s4,1
204010c0:	5afd                	li	s5,-1
204010c2:	e819                	bnez	s0,204010d8 <_fwalk+0x30>
204010c4:	50b2                	lw	ra,44(sp)
204010c6:	5422                	lw	s0,40(sp)
204010c8:	854a                	mv	a0,s2
204010ca:	5492                	lw	s1,36(sp)
204010cc:	5902                	lw	s2,32(sp)
204010ce:	49f2                	lw	s3,28(sp)
204010d0:	4a62                	lw	s4,24(sp)
204010d2:	4ad2                	lw	s5,20(sp)
204010d4:	6145                	addi	sp,sp,48
204010d6:	8082                	ret
204010d8:	4404                	lw	s1,8(s0)
204010da:	00442983          	lw	s3,4(s0)
204010de:	19fd                	addi	s3,s3,-1
204010e0:	0009d463          	bgez	s3,204010e8 <_fwalk+0x40>
204010e4:	4000                	lw	s0,0(s0)
204010e6:	bff1                	j	204010c2 <_fwalk+0x1a>
204010e8:	00c4d783          	lhu	a5,12(s1)
204010ec:	00fa7c63          	bgeu	s4,a5,20401104 <_fwalk+0x5c>
204010f0:	00e49783          	lh	a5,14(s1)
204010f4:	01578863          	beq	a5,s5,20401104 <_fwalk+0x5c>
204010f8:	8526                	mv	a0,s1
204010fa:	c62e                	sw	a1,12(sp)
204010fc:	9582                	jalr	a1
204010fe:	45b2                	lw	a1,12(sp)
20401100:	00a96933          	or	s2,s2,a0
20401104:	06848493          	addi	s1,s1,104
20401108:	bfd9                	j	204010de <_fwalk+0x36>

2040110a <_fwalk_reent>:
2040110a:	7179                	addi	sp,sp,-48
2040110c:	d422                	sw	s0,40(sp)
2040110e:	d04a                	sw	s2,32(sp)
20401110:	cc52                	sw	s4,24(sp)
20401112:	ca56                	sw	s5,20(sp)
20401114:	c85a                	sw	s6,16(sp)
20401116:	c65e                	sw	s7,12(sp)
20401118:	d606                	sw	ra,44(sp)
2040111a:	d226                	sw	s1,36(sp)
2040111c:	ce4e                	sw	s3,28(sp)
2040111e:	8a2a                	mv	s4,a0
20401120:	8aae                	mv	s5,a1
20401122:	04850413          	addi	s0,a0,72
20401126:	4901                	li	s2,0
20401128:	4b05                	li	s6,1
2040112a:	5bfd                	li	s7,-1
2040112c:	ec09                	bnez	s0,20401146 <_fwalk_reent+0x3c>
2040112e:	50b2                	lw	ra,44(sp)
20401130:	5422                	lw	s0,40(sp)
20401132:	854a                	mv	a0,s2
20401134:	5492                	lw	s1,36(sp)
20401136:	5902                	lw	s2,32(sp)
20401138:	49f2                	lw	s3,28(sp)
2040113a:	4a62                	lw	s4,24(sp)
2040113c:	4ad2                	lw	s5,20(sp)
2040113e:	4b42                	lw	s6,16(sp)
20401140:	4bb2                	lw	s7,12(sp)
20401142:	6145                	addi	sp,sp,48
20401144:	8082                	ret
20401146:	4404                	lw	s1,8(s0)
20401148:	00442983          	lw	s3,4(s0)
2040114c:	19fd                	addi	s3,s3,-1
2040114e:	0009d463          	bgez	s3,20401156 <_fwalk_reent+0x4c>
20401152:	4000                	lw	s0,0(s0)
20401154:	bfe1                	j	2040112c <_fwalk_reent+0x22>
20401156:	00c4d783          	lhu	a5,12(s1)
2040115a:	00fb7b63          	bgeu	s6,a5,20401170 <_fwalk_reent+0x66>
2040115e:	00e49783          	lh	a5,14(s1)
20401162:	01778763          	beq	a5,s7,20401170 <_fwalk_reent+0x66>
20401166:	85a6                	mv	a1,s1
20401168:	8552                	mv	a0,s4
2040116a:	9a82                	jalr	s5
2040116c:	00a96933          	or	s2,s2,a0
20401170:	06848493          	addi	s1,s1,104
20401174:	bfe1                	j	2040114c <_fwalk_reent+0x42>

20401176 <_gettimeofday_r>:
20401176:	1141                	addi	sp,sp,-16
20401178:	c422                	sw	s0,8(sp)
2040117a:	842a                	mv	s0,a0
2040117c:	852e                	mv	a0,a1
2040117e:	85b2                	mv	a1,a2
20401180:	5fc02797          	auipc	a5,0x5fc02
20401184:	0a07ae23          	sw	zero,188(a5) # 8000323c <errno>
20401188:	c606                	sw	ra,12(sp)
2040118a:	2c4020ef          	jal	ra,2040344e <_gettimeofday>
2040118e:	57fd                	li	a5,-1
20401190:	00f51963          	bne	a0,a5,204011a2 <_gettimeofday_r+0x2c>
20401194:	5fc02797          	auipc	a5,0x5fc02
20401198:	0a878793          	addi	a5,a5,168 # 8000323c <errno>
2040119c:	439c                	lw	a5,0(a5)
2040119e:	c391                	beqz	a5,204011a2 <_gettimeofday_r+0x2c>
204011a0:	c01c                	sw	a5,0(s0)
204011a2:	40b2                	lw	ra,12(sp)
204011a4:	4422                	lw	s0,8(sp)
204011a6:	0141                	addi	sp,sp,16
204011a8:	8082                	ret

204011aa <memset>:
204011aa:	433d                	li	t1,15
204011ac:	872a                	mv	a4,a0
204011ae:	02c37363          	bgeu	t1,a2,204011d4 <memset+0x2a>
204011b2:	00f77793          	andi	a5,a4,15
204011b6:	efbd                	bnez	a5,20401234 <memset+0x8a>
204011b8:	e5ad                	bnez	a1,20401222 <memset+0x78>
204011ba:	ff067693          	andi	a3,a2,-16
204011be:	8a3d                	andi	a2,a2,15
204011c0:	96ba                	add	a3,a3,a4
204011c2:	c30c                	sw	a1,0(a4)
204011c4:	c34c                	sw	a1,4(a4)
204011c6:	c70c                	sw	a1,8(a4)
204011c8:	c74c                	sw	a1,12(a4)
204011ca:	0741                	addi	a4,a4,16
204011cc:	fed76be3          	bltu	a4,a3,204011c2 <memset+0x18>
204011d0:	e211                	bnez	a2,204011d4 <memset+0x2a>
204011d2:	8082                	ret
204011d4:	40c306b3          	sub	a3,t1,a2
204011d8:	068a                	slli	a3,a3,0x2
204011da:	00000297          	auipc	t0,0x0
204011de:	9696                	add	a3,a3,t0
204011e0:	00a68067          	jr	10(a3)
204011e4:	00b70723          	sb	a1,14(a4)
204011e8:	00b706a3          	sb	a1,13(a4)
204011ec:	00b70623          	sb	a1,12(a4)
204011f0:	00b705a3          	sb	a1,11(a4)
204011f4:	00b70523          	sb	a1,10(a4)
204011f8:	00b704a3          	sb	a1,9(a4)
204011fc:	00b70423          	sb	a1,8(a4)
20401200:	00b703a3          	sb	a1,7(a4)
20401204:	00b70323          	sb	a1,6(a4)
20401208:	00b702a3          	sb	a1,5(a4)
2040120c:	00b70223          	sb	a1,4(a4)
20401210:	00b701a3          	sb	a1,3(a4)
20401214:	00b70123          	sb	a1,2(a4)
20401218:	00b700a3          	sb	a1,1(a4)
2040121c:	00b70023          	sb	a1,0(a4)
20401220:	8082                	ret
20401222:	0ff5f593          	andi	a1,a1,255
20401226:	00859693          	slli	a3,a1,0x8
2040122a:	8dd5                	or	a1,a1,a3
2040122c:	01059693          	slli	a3,a1,0x10
20401230:	8dd5                	or	a1,a1,a3
20401232:	b761                	j	204011ba <memset+0x10>
20401234:	00279693          	slli	a3,a5,0x2
20401238:	00000297          	auipc	t0,0x0
2040123c:	9696                	add	a3,a3,t0
2040123e:	8286                	mv	t0,ra
20401240:	fa8680e7          	jalr	-88(a3)
20401244:	8096                	mv	ra,t0
20401246:	17c1                	addi	a5,a5,-16
20401248:	8f1d                	sub	a4,a4,a5
2040124a:	963e                	add	a2,a2,a5
2040124c:	f8c374e3          	bgeu	t1,a2,204011d4 <memset+0x2a>
20401250:	b7a5                	j	204011b8 <memset+0xe>

20401252 <__malloc_lock>:
20401252:	8082                	ret

20401254 <__malloc_unlock>:
20401254:	8082                	ret

20401256 <__sfputc_r>:
20401256:	461c                	lw	a5,8(a2)
20401258:	17fd                	addi	a5,a5,-1
2040125a:	c61c                	sw	a5,8(a2)
2040125c:	0007da63          	bgez	a5,20401270 <__sfputc_r+0x1a>
20401260:	4e18                	lw	a4,24(a2)
20401262:	00e7c563          	blt	a5,a4,2040126c <__sfputc_r+0x16>
20401266:	47a9                	li	a5,10
20401268:	00f59463          	bne	a1,a5,20401270 <__sfputc_r+0x1a>
2040126c:	35b0006f          	j	20401dc6 <__swbuf_r>
20401270:	421c                	lw	a5,0(a2)
20401272:	852e                	mv	a0,a1
20401274:	00178713          	addi	a4,a5,1
20401278:	c218                	sw	a4,0(a2)
2040127a:	00b78023          	sb	a1,0(a5)
2040127e:	8082                	ret

20401280 <__sfputs_r>:
20401280:	1101                	addi	sp,sp,-32
20401282:	cc22                	sw	s0,24(sp)
20401284:	ca26                	sw	s1,20(sp)
20401286:	c84a                	sw	s2,16(sp)
20401288:	c64e                	sw	s3,12(sp)
2040128a:	c452                	sw	s4,8(sp)
2040128c:	ce06                	sw	ra,28(sp)
2040128e:	892a                	mv	s2,a0
20401290:	89ae                	mv	s3,a1
20401292:	8432                	mv	s0,a2
20401294:	00d604b3          	add	s1,a2,a3
20401298:	5a7d                	li	s4,-1
2040129a:	00941463          	bne	s0,s1,204012a2 <__sfputs_r+0x22>
2040129e:	4501                	li	a0,0
204012a0:	a809                	j	204012b2 <__sfputs_r+0x32>
204012a2:	00044583          	lbu	a1,0(s0)
204012a6:	864e                	mv	a2,s3
204012a8:	854a                	mv	a0,s2
204012aa:	3775                	jal	20401256 <__sfputc_r>
204012ac:	0405                	addi	s0,s0,1
204012ae:	ff4516e3          	bne	a0,s4,2040129a <__sfputs_r+0x1a>
204012b2:	40f2                	lw	ra,28(sp)
204012b4:	4462                	lw	s0,24(sp)
204012b6:	44d2                	lw	s1,20(sp)
204012b8:	4942                	lw	s2,16(sp)
204012ba:	49b2                	lw	s3,12(sp)
204012bc:	4a22                	lw	s4,8(sp)
204012be:	6105                	addi	sp,sp,32
204012c0:	8082                	ret

204012c2 <_vfiprintf_r>:
204012c2:	7135                	addi	sp,sp,-160
204012c4:	cd22                	sw	s0,152(sp)
204012c6:	cb26                	sw	s1,148(sp)
204012c8:	c94a                	sw	s2,144(sp)
204012ca:	c74e                	sw	s3,140(sp)
204012cc:	cf06                	sw	ra,156(sp)
204012ce:	c552                	sw	s4,136(sp)
204012d0:	c356                	sw	s5,132(sp)
204012d2:	c15a                	sw	s6,128(sp)
204012d4:	dede                	sw	s7,124(sp)
204012d6:	dce2                	sw	s8,120(sp)
204012d8:	dae6                	sw	s9,116(sp)
204012da:	89aa                	mv	s3,a0
204012dc:	84ae                	mv	s1,a1
204012de:	8932                	mv	s2,a2
204012e0:	8436                	mv	s0,a3
204012e2:	c501                	beqz	a0,204012ea <_vfiprintf_r+0x28>
204012e4:	4d1c                	lw	a5,24(a0)
204012e6:	e391                	bnez	a5,204012ea <_vfiprintf_r+0x28>
204012e8:	3965                	jal	20400fa0 <__sinit>
204012ea:	00005797          	auipc	a5,0x5
204012ee:	b5e78793          	addi	a5,a5,-1186 # 20405e48 <__sf_fake_stdin>
204012f2:	0cf49c63          	bne	s1,a5,204013ca <_vfiprintf_r+0x108>
204012f6:	0049a483          	lw	s1,4(s3)
204012fa:	00c4d783          	lhu	a5,12(s1)
204012fe:	8ba1                	andi	a5,a5,8
20401300:	c7fd                	beqz	a5,204013ee <_vfiprintf_r+0x12c>
20401302:	489c                	lw	a5,16(s1)
20401304:	c7ed                	beqz	a5,204013ee <_vfiprintf_r+0x12c>
20401306:	02000793          	li	a5,32
2040130a:	02f104a3          	sb	a5,41(sp)
2040130e:	03000793          	li	a5,48
20401312:	d202                	sw	zero,36(sp)
20401314:	02f10523          	sb	a5,42(sp)
20401318:	c622                	sw	s0,12(sp)
2040131a:	02500b93          	li	s7,37
2040131e:	00005a97          	auipc	s5,0x5
20401322:	b6aa8a93          	addi	s5,s5,-1174 # 20405e88 <__sf_fake_stdout+0x20>
20401326:	4c05                	li	s8,1
20401328:	4b29                	li	s6,10
2040132a:	844a                	mv	s0,s2
2040132c:	00044783          	lbu	a5,0(s0)
20401330:	c399                	beqz	a5,20401336 <_vfiprintf_r+0x74>
20401332:	0f779163          	bne	a5,s7,20401414 <_vfiprintf_r+0x152>
20401336:	41240cb3          	sub	s9,s0,s2
2040133a:	000c8d63          	beqz	s9,20401354 <_vfiprintf_r+0x92>
2040133e:	86e6                	mv	a3,s9
20401340:	864a                	mv	a2,s2
20401342:	85a6                	mv	a1,s1
20401344:	854e                	mv	a0,s3
20401346:	3f2d                	jal	20401280 <__sfputs_r>
20401348:	57fd                	li	a5,-1
2040134a:	1ef50963          	beq	a0,a5,2040153c <_vfiprintf_r+0x27a>
2040134e:	5692                	lw	a3,36(sp)
20401350:	96e6                	add	a3,a3,s9
20401352:	d236                	sw	a3,36(sp)
20401354:	00044783          	lbu	a5,0(s0)
20401358:	1e078263          	beqz	a5,2040153c <_vfiprintf_r+0x27a>
2040135c:	57fd                	li	a5,-1
2040135e:	00140913          	addi	s2,s0,1
20401362:	c802                	sw	zero,16(sp)
20401364:	ce02                	sw	zero,28(sp)
20401366:	ca3e                	sw	a5,20(sp)
20401368:	cc02                	sw	zero,24(sp)
2040136a:	040109a3          	sb	zero,83(sp)
2040136e:	d482                	sw	zero,104(sp)
20401370:	00094583          	lbu	a1,0(s2)
20401374:	4615                	li	a2,5
20401376:	8556                	mv	a0,s5
20401378:	7e3000ef          	jal	ra,2040235a <memchr>
2040137c:	00190413          	addi	s0,s2,1
20401380:	47c2                	lw	a5,16(sp)
20401382:	e959                	bnez	a0,20401418 <_vfiprintf_r+0x156>
20401384:	0107f713          	andi	a4,a5,16
20401388:	c709                	beqz	a4,20401392 <_vfiprintf_r+0xd0>
2040138a:	02000713          	li	a4,32
2040138e:	04e109a3          	sb	a4,83(sp)
20401392:	0087f713          	andi	a4,a5,8
20401396:	c709                	beqz	a4,204013a0 <_vfiprintf_r+0xde>
20401398:	02b00713          	li	a4,43
2040139c:	04e109a3          	sb	a4,83(sp)
204013a0:	00094683          	lbu	a3,0(s2)
204013a4:	02a00713          	li	a4,42
204013a8:	08e68063          	beq	a3,a4,20401428 <_vfiprintf_r+0x166>
204013ac:	47f2                	lw	a5,28(sp)
204013ae:	844a                	mv	s0,s2
204013b0:	4681                	li	a3,0
204013b2:	4625                	li	a2,9
204013b4:	00044703          	lbu	a4,0(s0)
204013b8:	00140593          	addi	a1,s0,1
204013bc:	fd070713          	addi	a4,a4,-48
204013c0:	0ae67963          	bgeu	a2,a4,20401472 <_vfiprintf_r+0x1b0>
204013c4:	cab5                	beqz	a3,20401438 <_vfiprintf_r+0x176>
204013c6:	ce3e                	sw	a5,28(sp)
204013c8:	a885                	j	20401438 <_vfiprintf_r+0x176>
204013ca:	00005797          	auipc	a5,0x5
204013ce:	a9e78793          	addi	a5,a5,-1378 # 20405e68 <__sf_fake_stdout>
204013d2:	00f49563          	bne	s1,a5,204013dc <_vfiprintf_r+0x11a>
204013d6:	0089a483          	lw	s1,8(s3)
204013da:	b705                	j	204012fa <_vfiprintf_r+0x38>
204013dc:	00005797          	auipc	a5,0x5
204013e0:	a4c78793          	addi	a5,a5,-1460 # 20405e28 <__sf_fake_stderr>
204013e4:	f0f49be3          	bne	s1,a5,204012fa <_vfiprintf_r+0x38>
204013e8:	00c9a483          	lw	s1,12(s3)
204013ec:	b739                	j	204012fa <_vfiprintf_r+0x38>
204013ee:	85a6                	mv	a1,s1
204013f0:	854e                	mv	a0,s3
204013f2:	2cd000ef          	jal	ra,20401ebe <__swsetup_r>
204013f6:	d901                	beqz	a0,20401306 <_vfiprintf_r+0x44>
204013f8:	557d                	li	a0,-1
204013fa:	40fa                	lw	ra,156(sp)
204013fc:	446a                	lw	s0,152(sp)
204013fe:	44da                	lw	s1,148(sp)
20401400:	494a                	lw	s2,144(sp)
20401402:	49ba                	lw	s3,140(sp)
20401404:	4a2a                	lw	s4,136(sp)
20401406:	4a9a                	lw	s5,132(sp)
20401408:	4b0a                	lw	s6,128(sp)
2040140a:	5bf6                	lw	s7,124(sp)
2040140c:	5c66                	lw	s8,120(sp)
2040140e:	5cd6                	lw	s9,116(sp)
20401410:	610d                	addi	sp,sp,160
20401412:	8082                	ret
20401414:	0405                	addi	s0,s0,1
20401416:	bf19                	j	2040132c <_vfiprintf_r+0x6a>
20401418:	41550533          	sub	a0,a0,s5
2040141c:	00ac1533          	sll	a0,s8,a0
20401420:	8fc9                	or	a5,a5,a0
20401422:	c83e                	sw	a5,16(sp)
20401424:	8922                	mv	s2,s0
20401426:	b7a9                	j	20401370 <_vfiprintf_r+0xae>
20401428:	4732                	lw	a4,12(sp)
2040142a:	00470693          	addi	a3,a4,4
2040142e:	4318                	lw	a4,0(a4)
20401430:	c636                	sw	a3,12(sp)
20401432:	02074963          	bltz	a4,20401464 <_vfiprintf_r+0x1a2>
20401436:	ce3a                	sw	a4,28(sp)
20401438:	00044703          	lbu	a4,0(s0)
2040143c:	02e00793          	li	a5,46
20401440:	04f71f63          	bne	a4,a5,2040149e <_vfiprintf_r+0x1dc>
20401444:	00144703          	lbu	a4,1(s0)
20401448:	02a00793          	li	a5,42
2040144c:	02f71b63          	bne	a4,a5,20401482 <_vfiprintf_r+0x1c0>
20401450:	47b2                	lw	a5,12(sp)
20401452:	0409                	addi	s0,s0,2
20401454:	00478713          	addi	a4,a5,4
20401458:	439c                	lw	a5,0(a5)
2040145a:	c63a                	sw	a4,12(sp)
2040145c:	0207c163          	bltz	a5,2040147e <_vfiprintf_r+0x1bc>
20401460:	ca3e                	sw	a5,20(sp)
20401462:	a835                	j	2040149e <_vfiprintf_r+0x1dc>
20401464:	40e00733          	neg	a4,a4
20401468:	0027e793          	ori	a5,a5,2
2040146c:	ce3a                	sw	a4,28(sp)
2040146e:	c83e                	sw	a5,16(sp)
20401470:	b7e1                	j	20401438 <_vfiprintf_r+0x176>
20401472:	036787b3          	mul	a5,a5,s6
20401476:	4685                	li	a3,1
20401478:	842e                	mv	s0,a1
2040147a:	97ba                	add	a5,a5,a4
2040147c:	bf25                	j	204013b4 <_vfiprintf_r+0xf2>
2040147e:	57fd                	li	a5,-1
20401480:	b7c5                	j	20401460 <_vfiprintf_r+0x19e>
20401482:	0405                	addi	s0,s0,1
20401484:	ca02                	sw	zero,20(sp)
20401486:	4681                	li	a3,0
20401488:	4781                	li	a5,0
2040148a:	4625                	li	a2,9
2040148c:	00044703          	lbu	a4,0(s0)
20401490:	00140593          	addi	a1,s0,1
20401494:	fd070713          	addi	a4,a4,-48
20401498:	06e67863          	bgeu	a2,a4,20401508 <_vfiprintf_r+0x246>
2040149c:	f2f1                	bnez	a3,20401460 <_vfiprintf_r+0x19e>
2040149e:	00044583          	lbu	a1,0(s0)
204014a2:	460d                	li	a2,3
204014a4:	00005517          	auipc	a0,0x5
204014a8:	9ec50513          	addi	a0,a0,-1556 # 20405e90 <__sf_fake_stdout+0x28>
204014ac:	6af000ef          	jal	ra,2040235a <memchr>
204014b0:	cd11                	beqz	a0,204014cc <_vfiprintf_r+0x20a>
204014b2:	00005797          	auipc	a5,0x5
204014b6:	9de78793          	addi	a5,a5,-1570 # 20405e90 <__sf_fake_stdout+0x28>
204014ba:	8d1d                	sub	a0,a0,a5
204014bc:	04000793          	li	a5,64
204014c0:	00a797b3          	sll	a5,a5,a0
204014c4:	4542                	lw	a0,16(sp)
204014c6:	0405                	addi	s0,s0,1
204014c8:	8d5d                	or	a0,a0,a5
204014ca:	c82a                	sw	a0,16(sp)
204014cc:	00044583          	lbu	a1,0(s0)
204014d0:	4619                	li	a2,6
204014d2:	00005517          	auipc	a0,0x5
204014d6:	9c250513          	addi	a0,a0,-1598 # 20405e94 <__sf_fake_stdout+0x2c>
204014da:	00140913          	addi	s2,s0,1
204014de:	02b10423          	sb	a1,40(sp)
204014e2:	679000ef          	jal	ra,2040235a <memchr>
204014e6:	c13d                	beqz	a0,2040154c <_vfiprintf_r+0x28a>
204014e8:	dfbff797          	auipc	a5,0xdfbff
204014ec:	b1878793          	addi	a5,a5,-1256 # 0 <__heap_size-0x400>
204014f0:	e795                	bnez	a5,2040151c <_vfiprintf_r+0x25a>
204014f2:	4742                	lw	a4,16(sp)
204014f4:	47b2                	lw	a5,12(sp)
204014f6:	10077713          	andi	a4,a4,256
204014fa:	cf09                	beqz	a4,20401514 <_vfiprintf_r+0x252>
204014fc:	0791                	addi	a5,a5,4
204014fe:	c63e                	sw	a5,12(sp)
20401500:	5792                	lw	a5,36(sp)
20401502:	97d2                	add	a5,a5,s4
20401504:	d23e                	sw	a5,36(sp)
20401506:	b515                	j	2040132a <_vfiprintf_r+0x68>
20401508:	036787b3          	mul	a5,a5,s6
2040150c:	4685                	li	a3,1
2040150e:	842e                	mv	s0,a1
20401510:	97ba                	add	a5,a5,a4
20401512:	bfad                	j	2040148c <_vfiprintf_r+0x1ca>
20401514:	079d                	addi	a5,a5,7
20401516:	9be1                	andi	a5,a5,-8
20401518:	07a1                	addi	a5,a5,8
2040151a:	b7d5                	j	204014fe <_vfiprintf_r+0x23c>
2040151c:	0078                	addi	a4,sp,12
2040151e:	00000697          	auipc	a3,0x0
20401522:	d6268693          	addi	a3,a3,-670 # 20401280 <__sfputs_r>
20401526:	8626                	mv	a2,s1
20401528:	080c                	addi	a1,sp,16
2040152a:	854e                	mv	a0,s3
2040152c:	00000097          	auipc	ra,0x0
20401530:	000000e7          	jalr	zero # 0 <__heap_size-0x400>
20401534:	57fd                	li	a5,-1
20401536:	8a2a                	mv	s4,a0
20401538:	fcf514e3          	bne	a0,a5,20401500 <_vfiprintf_r+0x23e>
2040153c:	00c4d783          	lhu	a5,12(s1)
20401540:	0407f793          	andi	a5,a5,64
20401544:	ea079ae3          	bnez	a5,204013f8 <_vfiprintf_r+0x136>
20401548:	5512                	lw	a0,36(sp)
2040154a:	bd45                	j	204013fa <_vfiprintf_r+0x138>
2040154c:	0078                	addi	a4,sp,12
2040154e:	00000697          	auipc	a3,0x0
20401552:	d3268693          	addi	a3,a3,-718 # 20401280 <__sfputs_r>
20401556:	8626                	mv	a2,s1
20401558:	080c                	addi	a1,sp,16
2040155a:	854e                	mv	a0,s3
2040155c:	77f000ef          	jal	ra,204024da <_printf_i>
20401560:	bfd1                	j	20401534 <_vfiprintf_r+0x272>

20401562 <__svfiscanf_r>:
20401562:	d2010113          	addi	sp,sp,-736
20401566:	00000797          	auipc	a5,0x0
2040156a:	74878793          	addi	a5,a5,1864 # 20401cae <_ungetc_r>
2040156e:	2d312623          	sw	s3,716(sp)
20401572:	28f12c23          	sw	a5,664(sp)
20401576:	01c10993          	addi	s3,sp,28
2040157a:	00000797          	auipc	a5,0x0
2040157e:	40c78793          	addi	a5,a5,1036 # 20401986 <__srefill_r>
20401582:	2c812c23          	sw	s0,728(sp)
20401586:	2c912a23          	sw	s1,724(sp)
2040158a:	2d212823          	sw	s2,720(sp)
2040158e:	2d412423          	sw	s4,712(sp)
20401592:	2d512223          	sw	s5,708(sp)
20401596:	2d612023          	sw	s6,704(sp)
2040159a:	2b712e23          	sw	s7,700(sp)
2040159e:	2b812c23          	sw	s8,696(sp)
204015a2:	2c112e23          	sw	ra,732(sp)
204015a6:	2b912a23          	sw	s9,692(sp)
204015aa:	2ba12823          	sw	s10,688(sp)
204015ae:	2bb12623          	sw	s11,684(sp)
204015b2:	84aa                	mv	s1,a0
204015b4:	842e                	mv	s0,a1
204015b6:	12012423          	sw	zero,296(sp)
204015ba:	12012623          	sw	zero,300(sp)
204015be:	13312823          	sw	s3,304(sp)
204015c2:	28f12e23          	sw	a5,668(sp)
204015c6:	cc36                	sw	a3,24(sp)
204015c8:	02500a13          	li	s4,37
204015cc:	02a00b13          	li	s6,42
204015d0:	4ba5                	li	s7,9
204015d2:	4929                	li	s2,10
204015d4:	00005a97          	auipc	s5,0x5
204015d8:	8bca8a93          	addi	s5,s5,-1860 # 20405e90 <__sf_fake_stdout+0x28>
204015dc:	dfbffc17          	auipc	s8,0xdfbff
204015e0:	a24c0c13          	addi	s8,s8,-1500 # 0 <__heap_size-0x400>
204015e4:	00064783          	lbu	a5,0(a2) # 1000 <__stack_size+0x800>
204015e8:	c632                	sw	a2,12(sp)
204015ea:	32078663          	beqz	a5,20401916 <__svfiscanf_r+0x3b4>
204015ee:	3e7000ef          	jal	ra,204021d4 <__locale_ctype_ptr>
204015f2:	4632                	lw	a2,12(sp)
204015f4:	00064d83          	lbu	s11,0(a2)
204015f8:	00160c93          	addi	s9,a2,1
204015fc:	956e                	add	a0,a0,s11
204015fe:	00154783          	lbu	a5,1(a0)
20401602:	8ba1                	andi	a5,a5,8
20401604:	c3b1                	beqz	a5,20401648 <__svfiscanf_r+0xe6>
20401606:	405c                	lw	a5,4(s0)
20401608:	02f05963          	blez	a5,2040163a <__svfiscanf_r+0xd8>
2040160c:	3c9000ef          	jal	ra,204021d4 <__locale_ctype_ptr>
20401610:	401c                	lw	a5,0(s0)
20401612:	0007c703          	lbu	a4,0(a5)
20401616:	953a                	add	a0,a0,a4
20401618:	00154703          	lbu	a4,1(a0)
2040161c:	8b21                	andi	a4,a4,8
2040161e:	e319                	bnez	a4,20401624 <__svfiscanf_r+0xc2>
20401620:	8666                	mv	a2,s9
20401622:	b7c9                	j	204015e4 <__svfiscanf_r+0x82>
20401624:	12c12703          	lw	a4,300(sp)
20401628:	0785                	addi	a5,a5,1
2040162a:	c01c                	sw	a5,0(s0)
2040162c:	0705                	addi	a4,a4,1
2040162e:	12e12623          	sw	a4,300(sp)
20401632:	4058                	lw	a4,4(s0)
20401634:	177d                	addi	a4,a4,-1
20401636:	c058                	sw	a4,4(s0)
20401638:	b7f9                	j	20401606 <__svfiscanf_r+0xa4>
2040163a:	29c12783          	lw	a5,668(sp)
2040163e:	85a2                	mv	a1,s0
20401640:	8526                	mv	a0,s1
20401642:	9782                	jalr	a5
20401644:	d561                	beqz	a0,2040160c <__svfiscanf_r+0xaa>
20401646:	bfe9                	j	20401620 <__svfiscanf_r+0xbe>
20401648:	174d9b63          	bne	s11,s4,204017be <__svfiscanf_r+0x25c>
2040164c:	12012223          	sw	zero,292(sp)
20401650:	10012e23          	sw	zero,284(sp)
20401654:	00164783          	lbu	a5,1(a2)
20401658:	01679763          	bne	a5,s6,20401666 <__svfiscanf_r+0x104>
2040165c:	47c1                	li	a5,16
2040165e:	10f12e23          	sw	a5,284(sp)
20401662:	00260c93          	addi	s9,a2,2
20401666:	000cc583          	lbu	a1,0(s9)
2040166a:	8d66                	mv	s10,s9
2040166c:	0c85                	addi	s9,s9,1
2040166e:	fd058793          	addi	a5,a1,-48
20401672:	06fbf063          	bgeu	s7,a5,204016d2 <__svfiscanf_r+0x170>
20401676:	460d                	li	a2,3
20401678:	8556                	mv	a0,s5
2040167a:	4e1000ef          	jal	ra,2040235a <memchr>
2040167e:	cd01                	beqz	a0,20401696 <__svfiscanf_r+0x134>
20401680:	41550533          	sub	a0,a0,s5
20401684:	4785                	li	a5,1
20401686:	00a797b3          	sll	a5,a5,a0
2040168a:	11c12503          	lw	a0,284(sp)
2040168e:	8d66                	mv	s10,s9
20401690:	8d5d                	or	a0,a0,a5
20401692:	10a12e23          	sw	a0,284(sp)
20401696:	000d4783          	lbu	a5,0(s10)
2040169a:	06700713          	li	a4,103
2040169e:	001d0c93          	addi	s9,s10,1
204016a2:	08f76663          	bltu	a4,a5,2040172e <__svfiscanf_r+0x1cc>
204016a6:	06500713          	li	a4,101
204016aa:	1ce7f063          	bgeu	a5,a4,2040186a <__svfiscanf_r+0x308>
204016ae:	04700713          	li	a4,71
204016b2:	02f76a63          	bltu	a4,a5,204016e6 <__svfiscanf_r+0x184>
204016b6:	04500713          	li	a4,69
204016ba:	1ae7f863          	bgeu	a5,a4,2040186a <__svfiscanf_r+0x308>
204016be:	12078c63          	beqz	a5,204017f6 <__svfiscanf_r+0x294>
204016c2:	0f478e63          	beq	a5,s4,204017be <__svfiscanf_r+0x25c>
204016c6:	478d                	li	a5,3
204016c8:	12f12a23          	sw	a5,308(sp)
204016cc:	13212023          	sw	s2,288(sp)
204016d0:	a061                	j	20401758 <__svfiscanf_r+0x1f6>
204016d2:	12412783          	lw	a5,292(sp)
204016d6:	02f907b3          	mul	a5,s2,a5
204016da:	fd078793          	addi	a5,a5,-48
204016de:	97ae                	add	a5,a5,a1
204016e0:	12f12223          	sw	a5,292(sp)
204016e4:	b749                	j	20401666 <__svfiscanf_r+0x104>
204016e6:	05b00713          	li	a4,91
204016ea:	12e78463          	beq	a5,a4,20401812 <__svfiscanf_r+0x2b0>
204016ee:	02f76563          	bltu	a4,a5,20401718 <__svfiscanf_r+0x1b6>
204016f2:	05800713          	li	a4,88
204016f6:	fce798e3          	bne	a5,a4,204016c6 <__svfiscanf_r+0x164>
204016fa:	11c12703          	lw	a4,284(sp)
204016fe:	20076713          	ori	a4,a4,512
20401702:	10e12e23          	sw	a4,284(sp)
20401706:	4741                	li	a4,16
20401708:	12e12023          	sw	a4,288(sp)
2040170c:	06e00713          	li	a4,110
20401710:	00f737b3          	sltu	a5,a4,a5
20401714:	078d                	addi	a5,a5,3
20401716:	a83d                	j	20401754 <__svfiscanf_r+0x1f2>
20401718:	06300713          	li	a4,99
2040171c:	10e78763          	beq	a5,a4,2040182a <__svfiscanf_r+0x2c8>
20401720:	06400713          	li	a4,100
20401724:	fae791e3          	bne	a5,a4,204016c6 <__svfiscanf_r+0x164>
20401728:	13212023          	sw	s2,288(sp)
2040172c:	b7c5                	j	2040170c <__svfiscanf_r+0x1aa>
2040172e:	07000713          	li	a4,112
20401732:	0ce78463          	beq	a5,a4,204017fa <__svfiscanf_r+0x298>
20401736:	06f76663          	bltu	a4,a5,204017a2 <__svfiscanf_r+0x240>
2040173a:	06e00713          	li	a4,110
2040173e:	0ee78f63          	beq	a5,a4,2040183c <__svfiscanf_r+0x2da>
20401742:	0cf76363          	bltu	a4,a5,20401808 <__svfiscanf_r+0x2a6>
20401746:	06900713          	li	a4,105
2040174a:	f6e79ee3          	bne	a5,a4,204016c6 <__svfiscanf_r+0x164>
2040174e:	12012023          	sw	zero,288(sp)
20401752:	478d                	li	a5,3
20401754:	12f12a23          	sw	a5,308(sp)
20401758:	405c                	lw	a5,4(s0)
2040175a:	10f05a63          	blez	a5,2040186e <__svfiscanf_r+0x30c>
2040175e:	11c12783          	lw	a5,284(sp)
20401762:	0407f793          	andi	a5,a5,64
20401766:	ef81                	bnez	a5,2040177e <__svfiscanf_r+0x21c>
20401768:	26d000ef          	jal	ra,204021d4 <__locale_ctype_ptr>
2040176c:	401c                	lw	a5,0(s0)
2040176e:	0007c703          	lbu	a4,0(a5)
20401772:	953a                	add	a0,a0,a4
20401774:	00154703          	lbu	a4,1(a0)
20401778:	8b21                	andi	a4,a4,8
2040177a:	10071263          	bnez	a4,2040187e <__svfiscanf_r+0x31c>
2040177e:	13412783          	lw	a5,308(sp)
20401782:	4709                	li	a4,2
20401784:	12f74263          	blt	a4,a5,204018a8 <__svfiscanf_r+0x346>
20401788:	0834                	addi	a3,sp,24
2040178a:	8622                	mv	a2,s0
2040178c:	0a6c                	addi	a1,sp,284
2040178e:	8526                	mv	a0,s1
20401790:	7ed000ef          	jal	ra,2040277c <_scanf_chars>
20401794:	4785                	li	a5,1
20401796:	18f50063          	beq	a0,a5,20401916 <__svfiscanf_r+0x3b4>
2040179a:	4789                	li	a5,2
2040179c:	e8f512e3          	bne	a0,a5,20401620 <__svfiscanf_r+0xbe>
204017a0:	a881                	j	204017f0 <__svfiscanf_r+0x28e>
204017a2:	07500713          	li	a4,117
204017a6:	f8e781e3          	beq	a5,a4,20401728 <__svfiscanf_r+0x1c6>
204017aa:	07800713          	li	a4,120
204017ae:	f4e786e3          	beq	a5,a4,204016fa <__svfiscanf_r+0x198>
204017b2:	07300713          	li	a4,115
204017b6:	f0e798e3          	bne	a5,a4,204016c6 <__svfiscanf_r+0x164>
204017ba:	4789                	li	a5,2
204017bc:	bf61                	j	20401754 <__svfiscanf_r+0x1f2>
204017be:	405c                	lw	a5,4(s0)
204017c0:	02f05263          	blez	a5,204017e4 <__svfiscanf_r+0x282>
204017c4:	401c                	lw	a5,0(s0)
204017c6:	0007c703          	lbu	a4,0(a5)
204017ca:	15b71663          	bne	a4,s11,20401916 <__svfiscanf_r+0x3b4>
204017ce:	0785                	addi	a5,a5,1
204017d0:	4058                	lw	a4,4(s0)
204017d2:	c01c                	sw	a5,0(s0)
204017d4:	12c12783          	lw	a5,300(sp)
204017d8:	177d                	addi	a4,a4,-1
204017da:	c058                	sw	a4,4(s0)
204017dc:	0785                	addi	a5,a5,1
204017de:	12f12623          	sw	a5,300(sp)
204017e2:	bd3d                	j	20401620 <__svfiscanf_r+0xbe>
204017e4:	29c12783          	lw	a5,668(sp)
204017e8:	85a2                	mv	a1,s0
204017ea:	8526                	mv	a0,s1
204017ec:	9782                	jalr	a5
204017ee:	d979                	beqz	a0,204017c4 <__svfiscanf_r+0x262>
204017f0:	12812503          	lw	a0,296(sp)
204017f4:	ed79                	bnez	a0,204018d2 <__svfiscanf_r+0x370>
204017f6:	557d                	li	a0,-1
204017f8:	a0d5                	j	204018dc <__svfiscanf_r+0x37a>
204017fa:	11c12703          	lw	a4,284(sp)
204017fe:	02076713          	ori	a4,a4,32
20401802:	10e12e23          	sw	a4,284(sp)
20401806:	bdd5                	j	204016fa <__svfiscanf_r+0x198>
20401808:	47a1                	li	a5,8
2040180a:	12f12023          	sw	a5,288(sp)
2040180e:	4791                	li	a5,4
20401810:	b791                	j	20401754 <__svfiscanf_r+0x1f2>
20401812:	85e6                	mv	a1,s9
20401814:	854e                	mv	a0,s3
20401816:	24d1                	jal	20401ada <__sccl>
20401818:	11c12783          	lw	a5,284(sp)
2040181c:	8caa                	mv	s9,a0
2040181e:	0407e793          	ori	a5,a5,64
20401822:	10f12e23          	sw	a5,284(sp)
20401826:	4785                	li	a5,1
20401828:	b735                	j	20401754 <__svfiscanf_r+0x1f2>
2040182a:	11c12783          	lw	a5,284(sp)
2040182e:	12012a23          	sw	zero,308(sp)
20401832:	0407e793          	ori	a5,a5,64
20401836:	10f12e23          	sw	a5,284(sp)
2040183a:	bf39                	j	20401758 <__svfiscanf_r+0x1f6>
2040183c:	11c12783          	lw	a5,284(sp)
20401840:	0107f713          	andi	a4,a5,16
20401844:	dc071ee3          	bnez	a4,20401620 <__svfiscanf_r+0xbe>
20401848:	4762                	lw	a4,24(sp)
2040184a:	0017f593          	andi	a1,a5,1
2040184e:	12c12683          	lw	a3,300(sp)
20401852:	00470613          	addi	a2,a4,4
20401856:	c591                	beqz	a1,20401862 <__svfiscanf_r+0x300>
20401858:	cc32                	sw	a2,24(sp)
2040185a:	431c                	lw	a5,0(a4)
2040185c:	00d79023          	sh	a3,0(a5)
20401860:	b3c1                	j	20401620 <__svfiscanf_r+0xbe>
20401862:	cc32                	sw	a2,24(sp)
20401864:	431c                	lw	a5,0(a4)
20401866:	c394                	sw	a3,0(a5)
20401868:	bb65                	j	20401620 <__svfiscanf_r+0xbe>
2040186a:	4795                	li	a5,5
2040186c:	b5e5                	j	20401754 <__svfiscanf_r+0x1f2>
2040186e:	29c12783          	lw	a5,668(sp)
20401872:	85a2                	mv	a1,s0
20401874:	8526                	mv	a0,s1
20401876:	9782                	jalr	a5
20401878:	ee0503e3          	beqz	a0,2040175e <__svfiscanf_r+0x1fc>
2040187c:	bf95                	j	204017f0 <__svfiscanf_r+0x28e>
2040187e:	12c12703          	lw	a4,300(sp)
20401882:	0705                	addi	a4,a4,1
20401884:	12e12623          	sw	a4,300(sp)
20401888:	4058                	lw	a4,4(s0)
2040188a:	177d                	addi	a4,a4,-1
2040188c:	c058                	sw	a4,4(s0)
2040188e:	00e05563          	blez	a4,20401898 <__svfiscanf_r+0x336>
20401892:	0785                	addi	a5,a5,1
20401894:	c01c                	sw	a5,0(s0)
20401896:	bdc9                	j	20401768 <__svfiscanf_r+0x206>
20401898:	29c12783          	lw	a5,668(sp)
2040189c:	85a2                	mv	a1,s0
2040189e:	8526                	mv	a0,s1
204018a0:	9782                	jalr	a5
204018a2:	ec0503e3          	beqz	a0,20401768 <__svfiscanf_r+0x206>
204018a6:	b7a9                	j	204017f0 <__svfiscanf_r+0x28e>
204018a8:	4711                	li	a4,4
204018aa:	00f74963          	blt	a4,a5,204018bc <__svfiscanf_r+0x35a>
204018ae:	0834                	addi	a3,sp,24
204018b0:	8622                	mv	a2,s0
204018b2:	0a6c                	addi	a1,sp,284
204018b4:	8526                	mv	a0,s1
204018b6:	7b3000ef          	jal	ra,20402868 <_scanf_i>
204018ba:	bde9                	j	20401794 <__svfiscanf_r+0x232>
204018bc:	d60c02e3          	beqz	s8,20401620 <__svfiscanf_r+0xbe>
204018c0:	0834                	addi	a3,sp,24
204018c2:	8622                	mv	a2,s0
204018c4:	0a6c                	addi	a1,sp,284
204018c6:	8526                	mv	a0,s1
204018c8:	00000097          	auipc	ra,0x0
204018cc:	000000e7          	jalr	zero # 0 <__heap_size-0x400>
204018d0:	b5d1                	j	20401794 <__svfiscanf_r+0x232>
204018d2:	00c45783          	lhu	a5,12(s0)
204018d6:	0407f793          	andi	a5,a5,64
204018da:	ff91                	bnez	a5,204017f6 <__svfiscanf_r+0x294>
204018dc:	2dc12083          	lw	ra,732(sp)
204018e0:	2d812403          	lw	s0,728(sp)
204018e4:	2d412483          	lw	s1,724(sp)
204018e8:	2d012903          	lw	s2,720(sp)
204018ec:	2cc12983          	lw	s3,716(sp)
204018f0:	2c812a03          	lw	s4,712(sp)
204018f4:	2c412a83          	lw	s5,708(sp)
204018f8:	2c012b03          	lw	s6,704(sp)
204018fc:	2bc12b83          	lw	s7,700(sp)
20401900:	2b812c03          	lw	s8,696(sp)
20401904:	2b412c83          	lw	s9,692(sp)
20401908:	2b012d03          	lw	s10,688(sp)
2040190c:	2ac12d83          	lw	s11,684(sp)
20401910:	2e010113          	addi	sp,sp,736
20401914:	8082                	ret
20401916:	12812503          	lw	a0,296(sp)
2040191a:	b7c9                	j	204018dc <__svfiscanf_r+0x37a>

2040191c <_vfiscanf_r>:
2040191c:	1101                	addi	sp,sp,-32
2040191e:	cc22                	sw	s0,24(sp)
20401920:	ce06                	sw	ra,28(sp)
20401922:	842a                	mv	s0,a0
20401924:	c919                	beqz	a0,2040193a <_vfiscanf_r+0x1e>
20401926:	4d1c                	lw	a5,24(a0)
20401928:	eb89                	bnez	a5,2040193a <_vfiscanf_r+0x1e>
2040192a:	c636                	sw	a3,12(sp)
2040192c:	c432                	sw	a2,8(sp)
2040192e:	c22e                	sw	a1,4(sp)
20401930:	e70ff0ef          	jal	ra,20400fa0 <__sinit>
20401934:	46b2                	lw	a3,12(sp)
20401936:	4622                	lw	a2,8(sp)
20401938:	4592                	lw	a1,4(sp)
2040193a:	00004797          	auipc	a5,0x4
2040193e:	50e78793          	addi	a5,a5,1294 # 20405e48 <__sf_fake_stdin>
20401942:	00f59863          	bne	a1,a5,20401952 <_vfiscanf_r+0x36>
20401946:	404c                	lw	a1,4(s0)
20401948:	8522                	mv	a0,s0
2040194a:	4462                	lw	s0,24(sp)
2040194c:	40f2                	lw	ra,28(sp)
2040194e:	6105                	addi	sp,sp,32
20401950:	b909                	j	20401562 <__svfiscanf_r>
20401952:	00004797          	auipc	a5,0x4
20401956:	51678793          	addi	a5,a5,1302 # 20405e68 <__sf_fake_stdout>
2040195a:	00f59463          	bne	a1,a5,20401962 <_vfiscanf_r+0x46>
2040195e:	440c                	lw	a1,8(s0)
20401960:	b7e5                	j	20401948 <_vfiscanf_r+0x2c>
20401962:	00004797          	auipc	a5,0x4
20401966:	4c678793          	addi	a5,a5,1222 # 20405e28 <__sf_fake_stderr>
2040196a:	fcf59fe3          	bne	a1,a5,20401948 <_vfiscanf_r+0x2c>
2040196e:	444c                	lw	a1,12(s0)
20401970:	bfe1                	j	20401948 <_vfiscanf_r+0x2c>

20401972 <lflush>:
20401972:	00c55783          	lhu	a5,12(a0)
20401976:	4725                	li	a4,9
20401978:	8ba5                	andi	a5,a5,9
2040197a:	00e79463          	bne	a5,a4,20401982 <lflush+0x10>
2040197e:	02b0006f          	j	204021a8 <fflush>
20401982:	4501                	li	a0,0
20401984:	8082                	ret

20401986 <__srefill_r>:
20401986:	1101                	addi	sp,sp,-32
20401988:	cc22                	sw	s0,24(sp)
2040198a:	ca26                	sw	s1,20(sp)
2040198c:	ce06                	sw	ra,28(sp)
2040198e:	c84a                	sw	s2,16(sp)
20401990:	c64e                	sw	s3,12(sp)
20401992:	84aa                	mv	s1,a0
20401994:	842e                	mv	s0,a1
20401996:	c509                	beqz	a0,204019a0 <__srefill_r+0x1a>
20401998:	4d1c                	lw	a5,24(a0)
2040199a:	e399                	bnez	a5,204019a0 <__srefill_r+0x1a>
2040199c:	e04ff0ef          	jal	ra,20400fa0 <__sinit>
204019a0:	00004797          	auipc	a5,0x4
204019a4:	4a878793          	addi	a5,a5,1192 # 20405e48 <__sf_fake_stdin>
204019a8:	00f41f63          	bne	s0,a5,204019c6 <__srefill_r+0x40>
204019ac:	40c0                	lw	s0,4(s1)
204019ae:	00c41703          	lh	a4,12(s0)
204019b2:	00042223          	sw	zero,4(s0)
204019b6:	01071793          	slli	a5,a4,0x10
204019ba:	83c1                	srli	a5,a5,0x10
204019bc:	0207f693          	andi	a3,a5,32
204019c0:	c29d                	beqz	a3,204019e6 <__srefill_r+0x60>
204019c2:	57fd                	li	a5,-1
204019c4:	a8f5                	j	20401ac0 <__srefill_r+0x13a>
204019c6:	00004797          	auipc	a5,0x4
204019ca:	4a278793          	addi	a5,a5,1186 # 20405e68 <__sf_fake_stdout>
204019ce:	00f41463          	bne	s0,a5,204019d6 <__srefill_r+0x50>
204019d2:	4480                	lw	s0,8(s1)
204019d4:	bfe9                	j	204019ae <__srefill_r+0x28>
204019d6:	00004797          	auipc	a5,0x4
204019da:	45278793          	addi	a5,a5,1106 # 20405e28 <__sf_fake_stderr>
204019de:	fcf418e3          	bne	s0,a5,204019ae <__srefill_r+0x28>
204019e2:	44c0                	lw	s0,12(s1)
204019e4:	b7e9                	j	204019ae <__srefill_r+0x28>
204019e6:	0047f693          	andi	a3,a5,4
204019ea:	ead5                	bnez	a3,20401a9e <__srefill_r+0x118>
204019ec:	0107f693          	andi	a3,a5,16
204019f0:	ea81                	bnez	a3,20401a00 <__srefill_r+0x7a>
204019f2:	47a5                	li	a5,9
204019f4:	c09c                	sw	a5,0(s1)
204019f6:	04076713          	ori	a4,a4,64
204019fa:	00e41623          	sh	a4,12(s0)
204019fe:	b7d1                	j	204019c2 <__srefill_r+0x3c>
20401a00:	8ba1                	andi	a5,a5,8
20401a02:	cf91                	beqz	a5,20401a1e <__srefill_r+0x98>
20401a04:	85a2                	mv	a1,s0
20401a06:	8526                	mv	a0,s1
20401a08:	2f2d                	jal	20402142 <_fflush_r>
20401a0a:	fd45                	bnez	a0,204019c2 <__srefill_r+0x3c>
20401a0c:	00c45783          	lhu	a5,12(s0)
20401a10:	00042423          	sw	zero,8(s0)
20401a14:	00042c23          	sw	zero,24(s0)
20401a18:	9bdd                	andi	a5,a5,-9
20401a1a:	00f41623          	sh	a5,12(s0)
20401a1e:	00c45783          	lhu	a5,12(s0)
20401a22:	0047e793          	ori	a5,a5,4
20401a26:	00f41623          	sh	a5,12(s0)
20401a2a:	481c                	lw	a5,16(s0)
20401a2c:	e789                	bnez	a5,20401a36 <__srefill_r+0xb0>
20401a2e:	85a2                	mv	a1,s0
20401a30:	8526                	mv	a0,s1
20401a32:	04f000ef          	jal	ra,20402280 <__smakebuf_r>
20401a36:	00c41983          	lh	s3,12(s0)
20401a3a:	01099913          	slli	s2,s3,0x10
20401a3e:	01095913          	srli	s2,s2,0x10
20401a42:	00397793          	andi	a5,s2,3
20401a46:	cb8d                	beqz	a5,20401a78 <__srefill_r+0xf2>
20401a48:	4785                	li	a5,1
20401a4a:	00f41623          	sh	a5,12(s0)
20401a4e:	5fbff797          	auipc	a5,0x5fbff
20401a52:	f3e78793          	addi	a5,a5,-194 # 8000098c <_global_impure_ptr>
20401a56:	4388                	lw	a0,0(a5)
20401a58:	00000597          	auipc	a1,0x0
20401a5c:	f1a58593          	addi	a1,a1,-230 # 20401972 <lflush>
20401a60:	00997913          	andi	s2,s2,9
20401a64:	e44ff0ef          	jal	ra,204010a8 <_fwalk>
20401a68:	47a5                	li	a5,9
20401a6a:	01341623          	sh	s3,12(s0)
20401a6e:	00f91563          	bne	s2,a5,20401a78 <__srefill_r+0xf2>
20401a72:	85a2                	mv	a1,s0
20401a74:	8526                	mv	a0,s1
20401a76:	2379                	jal	20402004 <__sflush_r>
20401a78:	4810                	lw	a2,16(s0)
20401a7a:	505c                	lw	a5,36(s0)
20401a7c:	4854                	lw	a3,20(s0)
20401a7e:	500c                	lw	a1,32(s0)
20401a80:	c010                	sw	a2,0(s0)
20401a82:	8526                	mv	a0,s1
20401a84:	9782                	jalr	a5
20401a86:	c048                	sw	a0,4(s0)
20401a88:	4781                	li	a5,0
20401a8a:	02a04b63          	bgtz	a0,20401ac0 <__srefill_r+0x13a>
20401a8e:	00c41783          	lh	a5,12(s0)
20401a92:	ed1d                	bnez	a0,20401ad0 <__srefill_r+0x14a>
20401a94:	0207e793          	ori	a5,a5,32
20401a98:	00f41623          	sh	a5,12(s0)
20401a9c:	b71d                	j	204019c2 <__srefill_r+0x3c>
20401a9e:	584c                	lw	a1,52(s0)
20401aa0:	d5c9                	beqz	a1,20401a2a <__srefill_r+0xa4>
20401aa2:	04440793          	addi	a5,s0,68
20401aa6:	00f58563          	beq	a1,a5,20401ab0 <__srefill_r+0x12a>
20401aaa:	8526                	mv	a0,s1
20401aac:	8a8ff0ef          	jal	ra,20400b54 <_free_r>
20401ab0:	403c                	lw	a5,64(s0)
20401ab2:	02042a23          	sw	zero,52(s0)
20401ab6:	c05c                	sw	a5,4(s0)
20401ab8:	dbad                	beqz	a5,20401a2a <__srefill_r+0xa4>
20401aba:	5c5c                	lw	a5,60(s0)
20401abc:	c01c                	sw	a5,0(s0)
20401abe:	4781                	li	a5,0
20401ac0:	40f2                	lw	ra,28(sp)
20401ac2:	4462                	lw	s0,24(sp)
20401ac4:	44d2                	lw	s1,20(sp)
20401ac6:	4942                	lw	s2,16(sp)
20401ac8:	49b2                	lw	s3,12(sp)
20401aca:	853e                	mv	a0,a5
20401acc:	6105                	addi	sp,sp,32
20401ace:	8082                	ret
20401ad0:	00042223          	sw	zero,4(s0)
20401ad4:	0407e793          	ori	a5,a5,64
20401ad8:	b7c1                	j	20401a98 <__srefill_r+0x112>

20401ada <__sccl>:
20401ada:	0005c783          	lbu	a5,0(a1)
20401ade:	05e00713          	li	a4,94
20401ae2:	04e78863          	beq	a5,a4,20401b32 <__sccl+0x58>
20401ae6:	00158713          	addi	a4,a1,1
20401aea:	4681                	li	a3,0
20401aec:	4601                	li	a2,0
20401aee:	10000593          	li	a1,256
20401af2:	00c50833          	add	a6,a0,a2
20401af6:	00d80023          	sb	a3,0(a6)
20401afa:	0605                	addi	a2,a2,1
20401afc:	feb61be3          	bne	a2,a1,20401af2 <__sccl+0x18>
20401b00:	fff70613          	addi	a2,a4,-1
20401b04:	c78d                	beqz	a5,20401b2e <__sccl+0x54>
20401b06:	0016c693          	xori	a3,a3,1
20401b0a:	02d00893          	li	a7,45
20401b0e:	05d00813          	li	a6,93
20401b12:	00f50633          	add	a2,a0,a5
20401b16:	00d60023          	sb	a3,0(a2)
20401b1a:	00074583          	lbu	a1,0(a4)
20401b1e:	00170613          	addi	a2,a4,1
20401b22:	03158463          	beq	a1,a7,20401b4a <__sccl+0x70>
20401b26:	01058463          	beq	a1,a6,20401b2e <__sccl+0x54>
20401b2a:	e991                	bnez	a1,20401b3e <__sccl+0x64>
20401b2c:	863a                	mv	a2,a4
20401b2e:	8532                	mv	a0,a2
20401b30:	8082                	ret
20401b32:	00258713          	addi	a4,a1,2
20401b36:	0015c783          	lbu	a5,1(a1)
20401b3a:	4685                	li	a3,1
20401b3c:	bf45                	j	20401aec <__sccl+0x12>
20401b3e:	87ae                	mv	a5,a1
20401b40:	8732                	mv	a4,a2
20401b42:	bfc1                	j	20401b12 <__sccl+0x38>
20401b44:	02d00793          	li	a5,45
20401b48:	bfe5                	j	20401b40 <__sccl+0x66>
20401b4a:	00174583          	lbu	a1,1(a4)
20401b4e:	ff058be3          	beq	a1,a6,20401b44 <__sccl+0x6a>
20401b52:	fef5c9e3          	blt	a1,a5,20401b44 <__sccl+0x6a>
20401b56:	0709                	addi	a4,a4,2
20401b58:	0785                	addi	a5,a5,1
20401b5a:	00f50633          	add	a2,a0,a5
20401b5e:	00d60023          	sb	a3,0(a2)
20401b62:	feb7cbe3          	blt	a5,a1,20401b58 <__sccl+0x7e>
20401b66:	bf55                	j	20401b1a <__sccl+0x40>

20401b68 <__sread>:
20401b68:	1141                	addi	sp,sp,-16
20401b6a:	c422                	sw	s0,8(sp)
20401b6c:	842e                	mv	s0,a1
20401b6e:	00e59583          	lh	a1,14(a1)
20401b72:	c606                	sw	ra,12(sp)
20401b74:	759000ef          	jal	ra,20402acc <_read_r>
20401b78:	00054963          	bltz	a0,20401b8a <__sread+0x22>
20401b7c:	487c                	lw	a5,84(s0)
20401b7e:	97aa                	add	a5,a5,a0
20401b80:	c87c                	sw	a5,84(s0)
20401b82:	40b2                	lw	ra,12(sp)
20401b84:	4422                	lw	s0,8(sp)
20401b86:	0141                	addi	sp,sp,16
20401b88:	8082                	ret
20401b8a:	00c45783          	lhu	a5,12(s0)
20401b8e:	777d                	lui	a4,0xfffff
20401b90:	177d                	addi	a4,a4,-1
20401b92:	8ff9                	and	a5,a5,a4
20401b94:	00f41623          	sh	a5,12(s0)
20401b98:	b7ed                	j	20401b82 <__sread+0x1a>

20401b9a <__swrite>:
20401b9a:	00c5d783          	lhu	a5,12(a1)
20401b9e:	1101                	addi	sp,sp,-32
20401ba0:	cc22                	sw	s0,24(sp)
20401ba2:	ca26                	sw	s1,20(sp)
20401ba4:	c84a                	sw	s2,16(sp)
20401ba6:	c64e                	sw	s3,12(sp)
20401ba8:	ce06                	sw	ra,28(sp)
20401baa:	1007f793          	andi	a5,a5,256
20401bae:	84aa                	mv	s1,a0
20401bb0:	842e                	mv	s0,a1
20401bb2:	8932                	mv	s2,a2
20401bb4:	89b6                	mv	s3,a3
20401bb6:	c791                	beqz	a5,20401bc2 <__swrite+0x28>
20401bb8:	00e59583          	lh	a1,14(a1)
20401bbc:	4689                	li	a3,2
20401bbe:	4601                	li	a2,0
20401bc0:	2d05                	jal	204021f0 <_lseek_r>
20401bc2:	00c45783          	lhu	a5,12(s0)
20401bc6:	777d                	lui	a4,0xfffff
20401bc8:	177d                	addi	a4,a4,-1
20401bca:	8ff9                	and	a5,a5,a4
20401bcc:	00f41623          	sh	a5,12(s0)
20401bd0:	00e41583          	lh	a1,14(s0)
20401bd4:	4462                	lw	s0,24(sp)
20401bd6:	40f2                	lw	ra,28(sp)
20401bd8:	86ce                	mv	a3,s3
20401bda:	864a                	mv	a2,s2
20401bdc:	49b2                	lw	s3,12(sp)
20401bde:	4942                	lw	s2,16(sp)
20401be0:	8526                	mv	a0,s1
20401be2:	44d2                	lw	s1,20(sp)
20401be4:	6105                	addi	sp,sp,32
20401be6:	a44d                	j	20401e88 <_write_r>

20401be8 <__sseek>:
20401be8:	1141                	addi	sp,sp,-16
20401bea:	c422                	sw	s0,8(sp)
20401bec:	842e                	mv	s0,a1
20401bee:	00e59583          	lh	a1,14(a1)
20401bf2:	c606                	sw	ra,12(sp)
20401bf4:	2bf5                	jal	204021f0 <_lseek_r>
20401bf6:	57fd                	li	a5,-1
20401bf8:	00c45703          	lhu	a4,12(s0)
20401bfc:	00f51b63          	bne	a0,a5,20401c12 <__sseek+0x2a>
20401c00:	77fd                	lui	a5,0xfffff
20401c02:	17fd                	addi	a5,a5,-1
20401c04:	8ff9                	and	a5,a5,a4
20401c06:	00f41623          	sh	a5,12(s0)
20401c0a:	40b2                	lw	ra,12(sp)
20401c0c:	4422                	lw	s0,8(sp)
20401c0e:	0141                	addi	sp,sp,16
20401c10:	8082                	ret
20401c12:	6785                	lui	a5,0x1
20401c14:	8fd9                	or	a5,a5,a4
20401c16:	00f41623          	sh	a5,12(s0)
20401c1a:	c868                	sw	a0,84(s0)
20401c1c:	b7fd                	j	20401c0a <__sseek+0x22>

20401c1e <__sclose>:
20401c1e:	00e59583          	lh	a1,14(a1)
20401c22:	ae45                	j	20401fd2 <_close_r>

20401c24 <__submore>:
20401c24:	1101                	addi	sp,sp,-32
20401c26:	cc22                	sw	s0,24(sp)
20401c28:	842e                	mv	s0,a1
20401c2a:	59cc                	lw	a1,52(a1)
20401c2c:	ce06                	sw	ra,28(sp)
20401c2e:	ca26                	sw	s1,20(sp)
20401c30:	c84a                	sw	s2,16(sp)
20401c32:	c64e                	sw	s3,12(sp)
20401c34:	c452                	sw	s4,8(sp)
20401c36:	04440793          	addi	a5,s0,68
20401c3a:	04f59563          	bne	a1,a5,20401c84 <__submore+0x60>
20401c3e:	40000593          	li	a1,1024
20401c42:	fbffe0ef          	jal	ra,20400c00 <_malloc_r>
20401c46:	e911                	bnez	a0,20401c5a <__submore+0x36>
20401c48:	557d                	li	a0,-1
20401c4a:	40f2                	lw	ra,28(sp)
20401c4c:	4462                	lw	s0,24(sp)
20401c4e:	44d2                	lw	s1,20(sp)
20401c50:	4942                	lw	s2,16(sp)
20401c52:	49b2                	lw	s3,12(sp)
20401c54:	4a22                	lw	s4,8(sp)
20401c56:	6105                	addi	sp,sp,32
20401c58:	8082                	ret
20401c5a:	40000793          	li	a5,1024
20401c5e:	dc1c                	sw	a5,56(s0)
20401c60:	04644783          	lbu	a5,70(s0)
20401c64:	d848                	sw	a0,52(s0)
20401c66:	3fd50513          	addi	a0,a0,1021
20401c6a:	00f50123          	sb	a5,2(a0)
20401c6e:	04544783          	lbu	a5,69(s0)
20401c72:	00f500a3          	sb	a5,1(a0)
20401c76:	04444783          	lbu	a5,68(s0)
20401c7a:	00f50023          	sb	a5,0(a0)
20401c7e:	c008                	sw	a0,0(s0)
20401c80:	4501                	li	a0,0
20401c82:	b7e1                	j	20401c4a <__submore+0x26>
20401c84:	03842903          	lw	s2,56(s0)
20401c88:	00191993          	slli	s3,s2,0x1
20401c8c:	864e                	mv	a2,s3
20401c8e:	25dd                	jal	20402374 <_realloc_r>
20401c90:	84aa                	mv	s1,a0
20401c92:	d95d                	beqz	a0,20401c48 <__submore+0x24>
20401c94:	01250a33          	add	s4,a0,s2
20401c98:	85aa                	mv	a1,a0
20401c9a:	864a                	mv	a2,s2
20401c9c:	8552                	mv	a0,s4
20401c9e:	e01fe0ef          	jal	ra,20400a9e <memcpy>
20401ca2:	01442023          	sw	s4,0(s0)
20401ca6:	d844                	sw	s1,52(s0)
20401ca8:	03342c23          	sw	s3,56(s0)
20401cac:	bfd1                	j	20401c80 <__submore+0x5c>

20401cae <_ungetc_r>:
20401cae:	1101                	addi	sp,sp,-32
20401cb0:	ce06                	sw	ra,28(sp)
20401cb2:	cc22                	sw	s0,24(sp)
20401cb4:	ca26                	sw	s1,20(sp)
20401cb6:	c84a                	sw	s2,16(sp)
20401cb8:	c64e                	sw	s3,12(sp)
20401cba:	57fd                	li	a5,-1
20401cbc:	00f59b63          	bne	a1,a5,20401cd2 <_ungetc_r+0x24>
20401cc0:	54fd                	li	s1,-1
20401cc2:	40f2                	lw	ra,28(sp)
20401cc4:	4462                	lw	s0,24(sp)
20401cc6:	8526                	mv	a0,s1
20401cc8:	4942                	lw	s2,16(sp)
20401cca:	44d2                	lw	s1,20(sp)
20401ccc:	49b2                	lw	s3,12(sp)
20401cce:	6105                	addi	sp,sp,32
20401cd0:	8082                	ret
20401cd2:	892a                	mv	s2,a0
20401cd4:	84ae                	mv	s1,a1
20401cd6:	8432                	mv	s0,a2
20401cd8:	c509                	beqz	a0,20401ce2 <_ungetc_r+0x34>
20401cda:	4d1c                	lw	a5,24(a0)
20401cdc:	e399                	bnez	a5,20401ce2 <_ungetc_r+0x34>
20401cde:	ac2ff0ef          	jal	ra,20400fa0 <__sinit>
20401ce2:	00004797          	auipc	a5,0x4
20401ce6:	16678793          	addi	a5,a5,358 # 20405e48 <__sf_fake_stdin>
20401cea:	06f41b63          	bne	s0,a5,20401d60 <_ungetc_r+0xb2>
20401cee:	00492403          	lw	s0,4(s2)
20401cf2:	00c41783          	lh	a5,12(s0)
20401cf6:	fdf7f793          	andi	a5,a5,-33
20401cfa:	00f41623          	sh	a5,12(s0)
20401cfe:	07c2                	slli	a5,a5,0x10
20401d00:	83c1                	srli	a5,a5,0x10
20401d02:	0047f713          	andi	a4,a5,4
20401d06:	eb0d                	bnez	a4,20401d38 <_ungetc_r+0x8a>
20401d08:	0107f713          	andi	a4,a5,16
20401d0c:	db55                	beqz	a4,20401cc0 <_ungetc_r+0x12>
20401d0e:	8ba1                	andi	a5,a5,8
20401d10:	cf91                	beqz	a5,20401d2c <_ungetc_r+0x7e>
20401d12:	85a2                	mv	a1,s0
20401d14:	854a                	mv	a0,s2
20401d16:	2135                	jal	20402142 <_fflush_r>
20401d18:	f545                	bnez	a0,20401cc0 <_ungetc_r+0x12>
20401d1a:	00c45783          	lhu	a5,12(s0)
20401d1e:	00042423          	sw	zero,8(s0)
20401d22:	00042c23          	sw	zero,24(s0)
20401d26:	9bdd                	andi	a5,a5,-9
20401d28:	00f41623          	sh	a5,12(s0)
20401d2c:	00c45783          	lhu	a5,12(s0)
20401d30:	0047e793          	ori	a5,a5,4
20401d34:	00f41623          	sh	a5,12(s0)
20401d38:	585c                	lw	a5,52(s0)
20401d3a:	0ff4f993          	andi	s3,s1,255
20401d3e:	4058                	lw	a4,4(s0)
20401d40:	0ff4f493          	andi	s1,s1,255
20401d44:	c7a9                	beqz	a5,20401d8e <_ungetc_r+0xe0>
20401d46:	5c1c                	lw	a5,56(s0)
20401d48:	02f75e63          	bge	a4,a5,20401d84 <_ungetc_r+0xd6>
20401d4c:	401c                	lw	a5,0(s0)
20401d4e:	fff78713          	addi	a4,a5,-1
20401d52:	c018                	sw	a4,0(s0)
20401d54:	ff378fa3          	sb	s3,-1(a5)
20401d58:	405c                	lw	a5,4(s0)
20401d5a:	0785                	addi	a5,a5,1
20401d5c:	c05c                	sw	a5,4(s0)
20401d5e:	b795                	j	20401cc2 <_ungetc_r+0x14>
20401d60:	00004797          	auipc	a5,0x4
20401d64:	10878793          	addi	a5,a5,264 # 20405e68 <__sf_fake_stdout>
20401d68:	00f41563          	bne	s0,a5,20401d72 <_ungetc_r+0xc4>
20401d6c:	00892403          	lw	s0,8(s2)
20401d70:	b749                	j	20401cf2 <_ungetc_r+0x44>
20401d72:	00004797          	auipc	a5,0x4
20401d76:	0b678793          	addi	a5,a5,182 # 20405e28 <__sf_fake_stderr>
20401d7a:	f6f41ce3          	bne	s0,a5,20401cf2 <_ungetc_r+0x44>
20401d7e:	00c92403          	lw	s0,12(s2)
20401d82:	bf85                	j	20401cf2 <_ungetc_r+0x44>
20401d84:	85a2                	mv	a1,s0
20401d86:	854a                	mv	a0,s2
20401d88:	3d71                	jal	20401c24 <__submore>
20401d8a:	d169                	beqz	a0,20401d4c <_ungetc_r+0x9e>
20401d8c:	bf15                	j	20401cc0 <_ungetc_r+0x12>
20401d8e:	4814                	lw	a3,16(s0)
20401d90:	401c                	lw	a5,0(s0)
20401d92:	ce81                	beqz	a3,20401daa <_ungetc_r+0xfc>
20401d94:	00f6fb63          	bgeu	a3,a5,20401daa <_ungetc_r+0xfc>
20401d98:	fff7c683          	lbu	a3,-1(a5)
20401d9c:	00969763          	bne	a3,s1,20401daa <_ungetc_r+0xfc>
20401da0:	17fd                	addi	a5,a5,-1
20401da2:	0705                	addi	a4,a4,1
20401da4:	c01c                	sw	a5,0(s0)
20401da6:	c058                	sw	a4,4(s0)
20401da8:	bf29                	j	20401cc2 <_ungetc_r+0x14>
20401daa:	dc5c                	sw	a5,60(s0)
20401dac:	04440793          	addi	a5,s0,68
20401db0:	d85c                	sw	a5,52(s0)
20401db2:	478d                	li	a5,3
20401db4:	dc1c                	sw	a5,56(s0)
20401db6:	04640793          	addi	a5,s0,70
20401dba:	c01c                	sw	a5,0(s0)
20401dbc:	c038                	sw	a4,64(s0)
20401dbe:	05340323          	sb	s3,70(s0)
20401dc2:	4785                	li	a5,1
20401dc4:	bf61                	j	20401d5c <_ungetc_r+0xae>

20401dc6 <__swbuf_r>:
20401dc6:	1101                	addi	sp,sp,-32
20401dc8:	cc22                	sw	s0,24(sp)
20401dca:	ca26                	sw	s1,20(sp)
20401dcc:	c84a                	sw	s2,16(sp)
20401dce:	ce06                	sw	ra,28(sp)
20401dd0:	c64e                	sw	s3,12(sp)
20401dd2:	84aa                	mv	s1,a0
20401dd4:	892e                	mv	s2,a1
20401dd6:	8432                	mv	s0,a2
20401dd8:	c509                	beqz	a0,20401de2 <__swbuf_r+0x1c>
20401dda:	4d1c                	lw	a5,24(a0)
20401ddc:	e399                	bnez	a5,20401de2 <__swbuf_r+0x1c>
20401dde:	9c2ff0ef          	jal	ra,20400fa0 <__sinit>
20401de2:	00004797          	auipc	a5,0x4
20401de6:	06678793          	addi	a5,a5,102 # 20405e48 <__sf_fake_stdin>
20401dea:	06f41963          	bne	s0,a5,20401e5c <__swbuf_r+0x96>
20401dee:	40c0                	lw	s0,4(s1)
20401df0:	4c1c                	lw	a5,24(s0)
20401df2:	c41c                	sw	a5,8(s0)
20401df4:	00c45783          	lhu	a5,12(s0)
20401df8:	8ba1                	andi	a5,a5,8
20401dfa:	c3c9                	beqz	a5,20401e7c <__swbuf_r+0xb6>
20401dfc:	481c                	lw	a5,16(s0)
20401dfe:	cfbd                	beqz	a5,20401e7c <__swbuf_r+0xb6>
20401e00:	481c                	lw	a5,16(s0)
20401e02:	4008                	lw	a0,0(s0)
20401e04:	0ff97993          	andi	s3,s2,255
20401e08:	0ff97913          	andi	s2,s2,255
20401e0c:	8d1d                	sub	a0,a0,a5
20401e0e:	485c                	lw	a5,20(s0)
20401e10:	00f54663          	blt	a0,a5,20401e1c <__swbuf_r+0x56>
20401e14:	85a2                	mv	a1,s0
20401e16:	8526                	mv	a0,s1
20401e18:	262d                	jal	20402142 <_fflush_r>
20401e1a:	e52d                	bnez	a0,20401e84 <__swbuf_r+0xbe>
20401e1c:	441c                	lw	a5,8(s0)
20401e1e:	0505                	addi	a0,a0,1
20401e20:	17fd                	addi	a5,a5,-1
20401e22:	c41c                	sw	a5,8(s0)
20401e24:	401c                	lw	a5,0(s0)
20401e26:	00178713          	addi	a4,a5,1
20401e2a:	c018                	sw	a4,0(s0)
20401e2c:	01378023          	sb	s3,0(a5)
20401e30:	485c                	lw	a5,20(s0)
20401e32:	00a78963          	beq	a5,a0,20401e44 <__swbuf_r+0x7e>
20401e36:	00c45783          	lhu	a5,12(s0)
20401e3a:	8b85                	andi	a5,a5,1
20401e3c:	cb81                	beqz	a5,20401e4c <__swbuf_r+0x86>
20401e3e:	47a9                	li	a5,10
20401e40:	00f91663          	bne	s2,a5,20401e4c <__swbuf_r+0x86>
20401e44:	85a2                	mv	a1,s0
20401e46:	8526                	mv	a0,s1
20401e48:	2ced                	jal	20402142 <_fflush_r>
20401e4a:	ed0d                	bnez	a0,20401e84 <__swbuf_r+0xbe>
20401e4c:	40f2                	lw	ra,28(sp)
20401e4e:	4462                	lw	s0,24(sp)
20401e50:	854a                	mv	a0,s2
20401e52:	44d2                	lw	s1,20(sp)
20401e54:	4942                	lw	s2,16(sp)
20401e56:	49b2                	lw	s3,12(sp)
20401e58:	6105                	addi	sp,sp,32
20401e5a:	8082                	ret
20401e5c:	00004797          	auipc	a5,0x4
20401e60:	00c78793          	addi	a5,a5,12 # 20405e68 <__sf_fake_stdout>
20401e64:	00f41463          	bne	s0,a5,20401e6c <__swbuf_r+0xa6>
20401e68:	4480                	lw	s0,8(s1)
20401e6a:	b759                	j	20401df0 <__swbuf_r+0x2a>
20401e6c:	00004797          	auipc	a5,0x4
20401e70:	fbc78793          	addi	a5,a5,-68 # 20405e28 <__sf_fake_stderr>
20401e74:	f6f41ee3          	bne	s0,a5,20401df0 <__swbuf_r+0x2a>
20401e78:	44c0                	lw	s0,12(s1)
20401e7a:	bf9d                	j	20401df0 <__swbuf_r+0x2a>
20401e7c:	85a2                	mv	a1,s0
20401e7e:	8526                	mv	a0,s1
20401e80:	283d                	jal	20401ebe <__swsetup_r>
20401e82:	dd3d                	beqz	a0,20401e00 <__swbuf_r+0x3a>
20401e84:	597d                	li	s2,-1
20401e86:	b7d9                	j	20401e4c <__swbuf_r+0x86>

20401e88 <_write_r>:
20401e88:	1141                	addi	sp,sp,-16
20401e8a:	c422                	sw	s0,8(sp)
20401e8c:	842a                	mv	s0,a0
20401e8e:	852e                	mv	a0,a1
20401e90:	85b2                	mv	a1,a2
20401e92:	8636                	mv	a2,a3
20401e94:	5fc01797          	auipc	a5,0x5fc01
20401e98:	3a07a423          	sw	zero,936(a5) # 8000323c <errno>
20401e9c:	c606                	sw	ra,12(sp)
20401e9e:	714010ef          	jal	ra,204035b2 <_write>
20401ea2:	57fd                	li	a5,-1
20401ea4:	00f51963          	bne	a0,a5,20401eb6 <_write_r+0x2e>
20401ea8:	5fc01797          	auipc	a5,0x5fc01
20401eac:	39478793          	addi	a5,a5,916 # 8000323c <errno>
20401eb0:	439c                	lw	a5,0(a5)
20401eb2:	c391                	beqz	a5,20401eb6 <_write_r+0x2e>
20401eb4:	c01c                	sw	a5,0(s0)
20401eb6:	40b2                	lw	ra,12(sp)
20401eb8:	4422                	lw	s0,8(sp)
20401eba:	0141                	addi	sp,sp,16
20401ebc:	8082                	ret

20401ebe <__swsetup_r>:
20401ebe:	1141                	addi	sp,sp,-16
20401ec0:	5fbff797          	auipc	a5,0x5fbff
20401ec4:	ac878793          	addi	a5,a5,-1336 # 80000988 <_impure_ptr>
20401ec8:	c226                	sw	s1,4(sp)
20401eca:	4384                	lw	s1,0(a5)
20401ecc:	c422                	sw	s0,8(sp)
20401ece:	c04a                	sw	s2,0(sp)
20401ed0:	c606                	sw	ra,12(sp)
20401ed2:	892a                	mv	s2,a0
20401ed4:	842e                	mv	s0,a1
20401ed6:	c491                	beqz	s1,20401ee2 <__swsetup_r+0x24>
20401ed8:	4c9c                	lw	a5,24(s1)
20401eda:	e781                	bnez	a5,20401ee2 <__swsetup_r+0x24>
20401edc:	8526                	mv	a0,s1
20401ede:	8c2ff0ef          	jal	ra,20400fa0 <__sinit>
20401ee2:	00004797          	auipc	a5,0x4
20401ee6:	f6678793          	addi	a5,a5,-154 # 20405e48 <__sf_fake_stdin>
20401eea:	02f41c63          	bne	s0,a5,20401f22 <__swsetup_r+0x64>
20401eee:	40c0                	lw	s0,4(s1)
20401ef0:	00c41703          	lh	a4,12(s0)
20401ef4:	01071793          	slli	a5,a4,0x10
20401ef8:	83c1                	srli	a5,a5,0x10
20401efa:	0087f693          	andi	a3,a5,8
20401efe:	eebd                	bnez	a3,20401f7c <__swsetup_r+0xbe>
20401f00:	0107f693          	andi	a3,a5,16
20401f04:	ee9d                	bnez	a3,20401f42 <__swsetup_r+0x84>
20401f06:	47a5                	li	a5,9
20401f08:	00f92023          	sw	a5,0(s2)
20401f0c:	04076713          	ori	a4,a4,64
20401f10:	00e41623          	sh	a4,12(s0)
20401f14:	557d                	li	a0,-1
20401f16:	40b2                	lw	ra,12(sp)
20401f18:	4422                	lw	s0,8(sp)
20401f1a:	4492                	lw	s1,4(sp)
20401f1c:	4902                	lw	s2,0(sp)
20401f1e:	0141                	addi	sp,sp,16
20401f20:	8082                	ret
20401f22:	00004797          	auipc	a5,0x4
20401f26:	f4678793          	addi	a5,a5,-186 # 20405e68 <__sf_fake_stdout>
20401f2a:	00f41463          	bne	s0,a5,20401f32 <__swsetup_r+0x74>
20401f2e:	4480                	lw	s0,8(s1)
20401f30:	b7c1                	j	20401ef0 <__swsetup_r+0x32>
20401f32:	00004797          	auipc	a5,0x4
20401f36:	ef678793          	addi	a5,a5,-266 # 20405e28 <__sf_fake_stderr>
20401f3a:	faf41be3          	bne	s0,a5,20401ef0 <__swsetup_r+0x32>
20401f3e:	44c0                	lw	s0,12(s1)
20401f40:	bf45                	j	20401ef0 <__swsetup_r+0x32>
20401f42:	8b91                	andi	a5,a5,4
20401f44:	c795                	beqz	a5,20401f70 <__swsetup_r+0xb2>
20401f46:	584c                	lw	a1,52(s0)
20401f48:	c991                	beqz	a1,20401f5c <__swsetup_r+0x9e>
20401f4a:	04440793          	addi	a5,s0,68
20401f4e:	00f58563          	beq	a1,a5,20401f58 <__swsetup_r+0x9a>
20401f52:	854a                	mv	a0,s2
20401f54:	c01fe0ef          	jal	ra,20400b54 <_free_r>
20401f58:	02042a23          	sw	zero,52(s0)
20401f5c:	00c45783          	lhu	a5,12(s0)
20401f60:	00042223          	sw	zero,4(s0)
20401f64:	fdb7f793          	andi	a5,a5,-37
20401f68:	00f41623          	sh	a5,12(s0)
20401f6c:	481c                	lw	a5,16(s0)
20401f6e:	c01c                	sw	a5,0(s0)
20401f70:	00c45783          	lhu	a5,12(s0)
20401f74:	0087e793          	ori	a5,a5,8
20401f78:	00f41623          	sh	a5,12(s0)
20401f7c:	481c                	lw	a5,16(s0)
20401f7e:	ef81                	bnez	a5,20401f96 <__swsetup_r+0xd8>
20401f80:	00c45783          	lhu	a5,12(s0)
20401f84:	20000713          	li	a4,512
20401f88:	2807f793          	andi	a5,a5,640
20401f8c:	00e78563          	beq	a5,a4,20401f96 <__swsetup_r+0xd8>
20401f90:	85a2                	mv	a1,s0
20401f92:	854a                	mv	a0,s2
20401f94:	24f5                	jal	20402280 <__smakebuf_r>
20401f96:	00c45783          	lhu	a5,12(s0)
20401f9a:	0017f713          	andi	a4,a5,1
20401f9e:	c705                	beqz	a4,20401fc6 <__swsetup_r+0x108>
20401fa0:	485c                	lw	a5,20(s0)
20401fa2:	00042423          	sw	zero,8(s0)
20401fa6:	40f007b3          	neg	a5,a5
20401faa:	cc1c                	sw	a5,24(s0)
20401fac:	481c                	lw	a5,16(s0)
20401fae:	4501                	li	a0,0
20401fb0:	f3bd                	bnez	a5,20401f16 <__swsetup_r+0x58>
20401fb2:	00c41783          	lh	a5,12(s0)
20401fb6:	0807f713          	andi	a4,a5,128
20401fba:	df31                	beqz	a4,20401f16 <__swsetup_r+0x58>
20401fbc:	0407e793          	ori	a5,a5,64
20401fc0:	00f41623          	sh	a5,12(s0)
20401fc4:	bf81                	j	20401f14 <__swsetup_r+0x56>
20401fc6:	8b89                	andi	a5,a5,2
20401fc8:	4701                	li	a4,0
20401fca:	e391                	bnez	a5,20401fce <__swsetup_r+0x110>
20401fcc:	4858                	lw	a4,20(s0)
20401fce:	c418                	sw	a4,8(s0)
20401fd0:	bff1                	j	20401fac <__swsetup_r+0xee>

20401fd2 <_close_r>:
20401fd2:	1141                	addi	sp,sp,-16
20401fd4:	c422                	sw	s0,8(sp)
20401fd6:	842a                	mv	s0,a0
20401fd8:	852e                	mv	a0,a1
20401fda:	5fc01797          	auipc	a5,0x5fc01
20401fde:	2607a123          	sw	zero,610(a5) # 8000323c <errno>
20401fe2:	c606                	sw	ra,12(sp)
20401fe4:	422010ef          	jal	ra,20403406 <_close>
20401fe8:	57fd                	li	a5,-1
20401fea:	00f51963          	bne	a0,a5,20401ffc <_close_r+0x2a>
20401fee:	5fc01797          	auipc	a5,0x5fc01
20401ff2:	24e78793          	addi	a5,a5,590 # 8000323c <errno>
20401ff6:	439c                	lw	a5,0(a5)
20401ff8:	c391                	beqz	a5,20401ffc <_close_r+0x2a>
20401ffa:	c01c                	sw	a5,0(s0)
20401ffc:	40b2                	lw	ra,12(sp)
20401ffe:	4422                	lw	s0,8(sp)
20402000:	0141                	addi	sp,sp,16
20402002:	8082                	ret

20402004 <__sflush_r>:
20402004:	00c5d783          	lhu	a5,12(a1)
20402008:	1101                	addi	sp,sp,-32
2040200a:	cc22                	sw	s0,24(sp)
2040200c:	ca26                	sw	s1,20(sp)
2040200e:	ce06                	sw	ra,28(sp)
20402010:	c84a                	sw	s2,16(sp)
20402012:	c64e                	sw	s3,12(sp)
20402014:	0087f713          	andi	a4,a5,8
20402018:	84aa                	mv	s1,a0
2040201a:	842e                	mv	s0,a1
2040201c:	ef79                	bnez	a4,204020fa <__sflush_r+0xf6>
2040201e:	41d8                	lw	a4,4(a1)
20402020:	00e04d63          	bgtz	a4,2040203a <__sflush_r+0x36>
20402024:	41b8                	lw	a4,64(a1)
20402026:	00e04a63          	bgtz	a4,2040203a <__sflush_r+0x36>
2040202a:	4501                	li	a0,0
2040202c:	40f2                	lw	ra,28(sp)
2040202e:	4462                	lw	s0,24(sp)
20402030:	44d2                	lw	s1,20(sp)
20402032:	4942                	lw	s2,16(sp)
20402034:	49b2                	lw	s3,12(sp)
20402036:	6105                	addi	sp,sp,32
20402038:	8082                	ret
2040203a:	5458                	lw	a4,44(s0)
2040203c:	d77d                	beqz	a4,2040202a <__sflush_r+0x26>
2040203e:	0004a903          	lw	s2,0(s1)
20402042:	01379693          	slli	a3,a5,0x13
20402046:	0004a023          	sw	zero,0(s1)
2040204a:	0606de63          	bgez	a3,204020c6 <__sflush_r+0xc2>
2040204e:	4870                	lw	a2,84(s0)
20402050:	00c45783          	lhu	a5,12(s0)
20402054:	8b91                	andi	a5,a5,4
20402056:	c799                	beqz	a5,20402064 <__sflush_r+0x60>
20402058:	405c                	lw	a5,4(s0)
2040205a:	8e1d                	sub	a2,a2,a5
2040205c:	585c                	lw	a5,52(s0)
2040205e:	c399                	beqz	a5,20402064 <__sflush_r+0x60>
20402060:	403c                	lw	a5,64(s0)
20402062:	8e1d                	sub	a2,a2,a5
20402064:	545c                	lw	a5,44(s0)
20402066:	500c                	lw	a1,32(s0)
20402068:	4681                	li	a3,0
2040206a:	8526                	mv	a0,s1
2040206c:	9782                	jalr	a5
2040206e:	57fd                	li	a5,-1
20402070:	00c45703          	lhu	a4,12(s0)
20402074:	00f51d63          	bne	a0,a5,2040208e <__sflush_r+0x8a>
20402078:	4094                	lw	a3,0(s1)
2040207a:	47f5                	li	a5,29
2040207c:	06d7e963          	bltu	a5,a3,204020ee <__sflush_r+0xea>
20402080:	204007b7          	lui	a5,0x20400
20402084:	0785                	addi	a5,a5,1
20402086:	00d7d7b3          	srl	a5,a5,a3
2040208a:	8b85                	andi	a5,a5,1
2040208c:	c3ad                	beqz	a5,204020ee <__sflush_r+0xea>
2040208e:	481c                	lw	a5,16(s0)
20402090:	00042223          	sw	zero,4(s0)
20402094:	c01c                	sw	a5,0(s0)
20402096:	01371793          	slli	a5,a4,0x13
2040209a:	0007d863          	bgez	a5,204020aa <__sflush_r+0xa6>
2040209e:	57fd                	li	a5,-1
204020a0:	00f51463          	bne	a0,a5,204020a8 <__sflush_r+0xa4>
204020a4:	409c                	lw	a5,0(s1)
204020a6:	e391                	bnez	a5,204020aa <__sflush_r+0xa6>
204020a8:	c868                	sw	a0,84(s0)
204020aa:	584c                	lw	a1,52(s0)
204020ac:	0124a023          	sw	s2,0(s1)
204020b0:	ddad                	beqz	a1,2040202a <__sflush_r+0x26>
204020b2:	04440793          	addi	a5,s0,68
204020b6:	00f58563          	beq	a1,a5,204020c0 <__sflush_r+0xbc>
204020ba:	8526                	mv	a0,s1
204020bc:	a99fe0ef          	jal	ra,20400b54 <_free_r>
204020c0:	02042a23          	sw	zero,52(s0)
204020c4:	b79d                	j	2040202a <__sflush_r+0x26>
204020c6:	500c                	lw	a1,32(s0)
204020c8:	4601                	li	a2,0
204020ca:	4685                	li	a3,1
204020cc:	8526                	mv	a0,s1
204020ce:	9702                	jalr	a4
204020d0:	57fd                	li	a5,-1
204020d2:	862a                	mv	a2,a0
204020d4:	f6f51ee3          	bne	a0,a5,20402050 <__sflush_r+0x4c>
204020d8:	409c                	lw	a5,0(s1)
204020da:	dbbd                	beqz	a5,20402050 <__sflush_r+0x4c>
204020dc:	4775                	li	a4,29
204020de:	00e78563          	beq	a5,a4,204020e8 <__sflush_r+0xe4>
204020e2:	4759                	li	a4,22
204020e4:	04e79463          	bne	a5,a4,2040212c <__sflush_r+0x128>
204020e8:	0124a023          	sw	s2,0(s1)
204020ec:	bf3d                	j	2040202a <__sflush_r+0x26>
204020ee:	04076713          	ori	a4,a4,64
204020f2:	00e41623          	sh	a4,12(s0)
204020f6:	557d                	li	a0,-1
204020f8:	bf15                	j	2040202c <__sflush_r+0x28>
204020fa:	0105a983          	lw	s3,16(a1)
204020fe:	f20986e3          	beqz	s3,2040202a <__sflush_r+0x26>
20402102:	0005a903          	lw	s2,0(a1)
20402106:	8b8d                	andi	a5,a5,3
20402108:	0135a023          	sw	s3,0(a1)
2040210c:	41390933          	sub	s2,s2,s3
20402110:	4701                	li	a4,0
20402112:	e391                	bnez	a5,20402116 <__sflush_r+0x112>
20402114:	49d8                	lw	a4,20(a1)
20402116:	c418                	sw	a4,8(s0)
20402118:	f12059e3          	blez	s2,2040202a <__sflush_r+0x26>
2040211c:	541c                	lw	a5,40(s0)
2040211e:	500c                	lw	a1,32(s0)
20402120:	86ca                	mv	a3,s2
20402122:	864e                	mv	a2,s3
20402124:	8526                	mv	a0,s1
20402126:	9782                	jalr	a5
20402128:	00a04963          	bgtz	a0,2040213a <__sflush_r+0x136>
2040212c:	00c45783          	lhu	a5,12(s0)
20402130:	0407e793          	ori	a5,a5,64
20402134:	00f41623          	sh	a5,12(s0)
20402138:	bf7d                	j	204020f6 <__sflush_r+0xf2>
2040213a:	99aa                	add	s3,s3,a0
2040213c:	40a90933          	sub	s2,s2,a0
20402140:	bfe1                	j	20402118 <__sflush_r+0x114>

20402142 <_fflush_r>:
20402142:	499c                	lw	a5,16(a1)
20402144:	c3a5                	beqz	a5,204021a4 <_fflush_r+0x62>
20402146:	1101                	addi	sp,sp,-32
20402148:	cc22                	sw	s0,24(sp)
2040214a:	ce06                	sw	ra,28(sp)
2040214c:	842a                	mv	s0,a0
2040214e:	c519                	beqz	a0,2040215c <_fflush_r+0x1a>
20402150:	4d1c                	lw	a5,24(a0)
20402152:	e789                	bnez	a5,2040215c <_fflush_r+0x1a>
20402154:	c62e                	sw	a1,12(sp)
20402156:	e4bfe0ef          	jal	ra,20400fa0 <__sinit>
2040215a:	45b2                	lw	a1,12(sp)
2040215c:	00004797          	auipc	a5,0x4
20402160:	cec78793          	addi	a5,a5,-788 # 20405e48 <__sf_fake_stdin>
20402164:	00f59b63          	bne	a1,a5,2040217a <_fflush_r+0x38>
20402168:	404c                	lw	a1,4(s0)
2040216a:	00c59783          	lh	a5,12(a1)
2040216e:	c795                	beqz	a5,2040219a <_fflush_r+0x58>
20402170:	8522                	mv	a0,s0
20402172:	4462                	lw	s0,24(sp)
20402174:	40f2                	lw	ra,28(sp)
20402176:	6105                	addi	sp,sp,32
20402178:	b571                	j	20402004 <__sflush_r>
2040217a:	00004797          	auipc	a5,0x4
2040217e:	cee78793          	addi	a5,a5,-786 # 20405e68 <__sf_fake_stdout>
20402182:	00f59463          	bne	a1,a5,2040218a <_fflush_r+0x48>
20402186:	440c                	lw	a1,8(s0)
20402188:	b7cd                	j	2040216a <_fflush_r+0x28>
2040218a:	00004797          	auipc	a5,0x4
2040218e:	c9e78793          	addi	a5,a5,-866 # 20405e28 <__sf_fake_stderr>
20402192:	fcf59ce3          	bne	a1,a5,2040216a <_fflush_r+0x28>
20402196:	444c                	lw	a1,12(s0)
20402198:	bfc9                	j	2040216a <_fflush_r+0x28>
2040219a:	40f2                	lw	ra,28(sp)
2040219c:	4462                	lw	s0,24(sp)
2040219e:	4501                	li	a0,0
204021a0:	6105                	addi	sp,sp,32
204021a2:	8082                	ret
204021a4:	4501                	li	a0,0
204021a6:	8082                	ret

204021a8 <fflush>:
204021a8:	85aa                	mv	a1,a0
204021aa:	ed01                	bnez	a0,204021c2 <fflush+0x1a>
204021ac:	5fbfe797          	auipc	a5,0x5fbfe
204021b0:	7e078793          	addi	a5,a5,2016 # 8000098c <_global_impure_ptr>
204021b4:	4388                	lw	a0,0(a5)
204021b6:	00000597          	auipc	a1,0x0
204021ba:	f8c58593          	addi	a1,a1,-116 # 20402142 <_fflush_r>
204021be:	f4dfe06f          	j	2040110a <_fwalk_reent>
204021c2:	5fbfe797          	auipc	a5,0x5fbfe
204021c6:	7c678793          	addi	a5,a5,1990 # 80000988 <_impure_ptr>
204021ca:	4388                	lw	a0,0(a5)
204021cc:	bf9d                	j	20402142 <_fflush_r>

204021ce <__locale_ctype_ptr_l>:
204021ce:	0ec52503          	lw	a0,236(a0)
204021d2:	8082                	ret

204021d4 <__locale_ctype_ptr>:
204021d4:	5fbfe797          	auipc	a5,0x5fbfe
204021d8:	7b478793          	addi	a5,a5,1972 # 80000988 <_impure_ptr>
204021dc:	439c                	lw	a5,0(a5)
204021de:	539c                	lw	a5,32(a5)
204021e0:	e789                	bnez	a5,204021ea <__locale_ctype_ptr+0x16>
204021e2:	5fbfe797          	auipc	a5,0x5fbfe
204021e6:	e7e78793          	addi	a5,a5,-386 # 80000060 <__global_locale>
204021ea:	0ec7a503          	lw	a0,236(a5)
204021ee:	8082                	ret

204021f0 <_lseek_r>:
204021f0:	1141                	addi	sp,sp,-16
204021f2:	c422                	sw	s0,8(sp)
204021f4:	842a                	mv	s0,a0
204021f6:	852e                	mv	a0,a1
204021f8:	85b2                	mv	a1,a2
204021fa:	8636                	mv	a2,a3
204021fc:	5fc01797          	auipc	a5,0x5fc01
20402200:	0407a023          	sw	zero,64(a5) # 8000323c <errno>
20402204:	c606                	sw	ra,12(sp)
20402206:	2dc010ef          	jal	ra,204034e2 <_lseek>
2040220a:	57fd                	li	a5,-1
2040220c:	00f51963          	bne	a0,a5,2040221e <_lseek_r+0x2e>
20402210:	5fc01797          	auipc	a5,0x5fc01
20402214:	02c78793          	addi	a5,a5,44 # 8000323c <errno>
20402218:	439c                	lw	a5,0(a5)
2040221a:	c391                	beqz	a5,2040221e <_lseek_r+0x2e>
2040221c:	c01c                	sw	a5,0(s0)
2040221e:	40b2                	lw	ra,12(sp)
20402220:	4422                	lw	s0,8(sp)
20402222:	0141                	addi	sp,sp,16
20402224:	8082                	ret

20402226 <__swhatbuf_r>:
20402226:	7119                	addi	sp,sp,-128
20402228:	daa6                	sw	s1,116(sp)
2040222a:	84ae                	mv	s1,a1
2040222c:	00e59583          	lh	a1,14(a1)
20402230:	dca2                	sw	s0,120(sp)
20402232:	de86                	sw	ra,124(sp)
20402234:	8432                	mv	s0,a2
20402236:	0005dc63          	bgez	a1,2040224e <__swhatbuf_r+0x28>
2040223a:	00c4d783          	lhu	a5,12(s1)
2040223e:	0006a023          	sw	zero,0(a3)
20402242:	0807f793          	andi	a5,a5,128
20402246:	e785                	bnez	a5,2040226e <__swhatbuf_r+0x48>
20402248:	40000793          	li	a5,1024
2040224c:	a01d                	j	20402272 <__swhatbuf_r+0x4c>
2040224e:	0830                	addi	a2,sp,24
20402250:	c636                	sw	a3,12(sp)
20402252:	37f000ef          	jal	ra,20402dd0 <_fstat_r>
20402256:	46b2                	lw	a3,12(sp)
20402258:	fe0541e3          	bltz	a0,2040223a <__swhatbuf_r+0x14>
2040225c:	4772                	lw	a4,28(sp)
2040225e:	67bd                	lui	a5,0xf
20402260:	8ff9                	and	a5,a5,a4
20402262:	7779                	lui	a4,0xffffe
20402264:	97ba                	add	a5,a5,a4
20402266:	0017b793          	seqz	a5,a5
2040226a:	c29c                	sw	a5,0(a3)
2040226c:	bff1                	j	20402248 <__swhatbuf_r+0x22>
2040226e:	04000793          	li	a5,64
20402272:	c01c                	sw	a5,0(s0)
20402274:	50f6                	lw	ra,124(sp)
20402276:	5466                	lw	s0,120(sp)
20402278:	54d6                	lw	s1,116(sp)
2040227a:	4501                	li	a0,0
2040227c:	6109                	addi	sp,sp,128
2040227e:	8082                	ret

20402280 <__smakebuf_r>:
20402280:	00c5d783          	lhu	a5,12(a1)
20402284:	1101                	addi	sp,sp,-32
20402286:	cc22                	sw	s0,24(sp)
20402288:	ce06                	sw	ra,28(sp)
2040228a:	ca26                	sw	s1,20(sp)
2040228c:	c84a                	sw	s2,16(sp)
2040228e:	8b89                	andi	a5,a5,2
20402290:	842e                	mv	s0,a1
20402292:	cf89                	beqz	a5,204022ac <__smakebuf_r+0x2c>
20402294:	04740793          	addi	a5,s0,71
20402298:	c01c                	sw	a5,0(s0)
2040229a:	c81c                	sw	a5,16(s0)
2040229c:	4785                	li	a5,1
2040229e:	c85c                	sw	a5,20(s0)
204022a0:	40f2                	lw	ra,28(sp)
204022a2:	4462                	lw	s0,24(sp)
204022a4:	44d2                	lw	s1,20(sp)
204022a6:	4942                	lw	s2,16(sp)
204022a8:	6105                	addi	sp,sp,32
204022aa:	8082                	ret
204022ac:	0074                	addi	a3,sp,12
204022ae:	0030                	addi	a2,sp,8
204022b0:	84aa                	mv	s1,a0
204022b2:	3f95                	jal	20402226 <__swhatbuf_r>
204022b4:	45a2                	lw	a1,8(sp)
204022b6:	892a                	mv	s2,a0
204022b8:	8526                	mv	a0,s1
204022ba:	947fe0ef          	jal	ra,20400c00 <_malloc_r>
204022be:	ed01                	bnez	a0,204022d6 <__smakebuf_r+0x56>
204022c0:	00c41783          	lh	a5,12(s0)
204022c4:	2007f713          	andi	a4,a5,512
204022c8:	ff61                	bnez	a4,204022a0 <__smakebuf_r+0x20>
204022ca:	9bf1                	andi	a5,a5,-4
204022cc:	0027e793          	ori	a5,a5,2
204022d0:	00f41623          	sh	a5,12(s0)
204022d4:	b7c1                	j	20402294 <__smakebuf_r+0x14>
204022d6:	fffff797          	auipc	a5,0xfffff
204022da:	c7c78793          	addi	a5,a5,-900 # 20400f52 <_cleanup_r>
204022de:	d49c                	sw	a5,40(s1)
204022e0:	00c45783          	lhu	a5,12(s0)
204022e4:	c008                	sw	a0,0(s0)
204022e6:	c808                	sw	a0,16(s0)
204022e8:	0807e793          	ori	a5,a5,128
204022ec:	00f41623          	sh	a5,12(s0)
204022f0:	47a2                	lw	a5,8(sp)
204022f2:	c85c                	sw	a5,20(s0)
204022f4:	47b2                	lw	a5,12(sp)
204022f6:	cf91                	beqz	a5,20402312 <__smakebuf_r+0x92>
204022f8:	00e41583          	lh	a1,14(s0)
204022fc:	8526                	mv	a0,s1
204022fe:	305000ef          	jal	ra,20402e02 <_isatty_r>
20402302:	c901                	beqz	a0,20402312 <__smakebuf_r+0x92>
20402304:	00c45783          	lhu	a5,12(s0)
20402308:	9bf1                	andi	a5,a5,-4
2040230a:	0017e793          	ori	a5,a5,1
2040230e:	00f41623          	sh	a5,12(s0)
20402312:	00c45783          	lhu	a5,12(s0)
20402316:	00f96933          	or	s2,s2,a5
2040231a:	01241623          	sh	s2,12(s0)
2040231e:	b749                	j	204022a0 <__smakebuf_r+0x20>

20402320 <__ascii_mbtowc>:
20402320:	e185                	bnez	a1,20402340 <__ascii_mbtowc+0x20>
20402322:	1141                	addi	sp,sp,-16
20402324:	006c                	addi	a1,sp,12
20402326:	4501                	li	a0,0
20402328:	ca11                	beqz	a2,2040233c <__ascii_mbtowc+0x1c>
2040232a:	5579                	li	a0,-2
2040232c:	ca81                	beqz	a3,2040233c <__ascii_mbtowc+0x1c>
2040232e:	00064783          	lbu	a5,0(a2)
20402332:	c19c                	sw	a5,0(a1)
20402334:	00064503          	lbu	a0,0(a2)
20402338:	00a03533          	snez	a0,a0
2040233c:	0141                	addi	sp,sp,16
2040233e:	8082                	ret
20402340:	4501                	li	a0,0
20402342:	ca19                	beqz	a2,20402358 <__ascii_mbtowc+0x38>
20402344:	5579                	li	a0,-2
20402346:	ca89                	beqz	a3,20402358 <__ascii_mbtowc+0x38>
20402348:	00064783          	lbu	a5,0(a2)
2040234c:	c19c                	sw	a5,0(a1)
2040234e:	00064503          	lbu	a0,0(a2)
20402352:	00a03533          	snez	a0,a0
20402356:	8082                	ret
20402358:	8082                	ret

2040235a <memchr>:
2040235a:	0ff5f593          	andi	a1,a1,255
2040235e:	962a                	add	a2,a2,a0
20402360:	00c51463          	bne	a0,a2,20402368 <memchr+0xe>
20402364:	4501                	li	a0,0
20402366:	8082                	ret
20402368:	00054783          	lbu	a5,0(a0)
2040236c:	feb78de3          	beq	a5,a1,20402366 <memchr+0xc>
20402370:	0505                	addi	a0,a0,1
20402372:	b7fd                	j	20402360 <memchr+0x6>

20402374 <_realloc_r>:
20402374:	e581                	bnez	a1,2040237c <_realloc_r+0x8>
20402376:	85b2                	mv	a1,a2
20402378:	889fe06f          	j	20400c00 <_malloc_r>
2040237c:	1101                	addi	sp,sp,-32
2040237e:	cc22                	sw	s0,24(sp)
20402380:	ce06                	sw	ra,28(sp)
20402382:	ca26                	sw	s1,20(sp)
20402384:	c84a                	sw	s2,16(sp)
20402386:	c64e                	sw	s3,12(sp)
20402388:	8432                	mv	s0,a2
2040238a:	ee01                	bnez	a2,204023a2 <_realloc_r+0x2e>
2040238c:	fc8fe0ef          	jal	ra,20400b54 <_free_r>
20402390:	4901                	li	s2,0
20402392:	40f2                	lw	ra,28(sp)
20402394:	4462                	lw	s0,24(sp)
20402396:	854a                	mv	a0,s2
20402398:	44d2                	lw	s1,20(sp)
2040239a:	4942                	lw	s2,16(sp)
2040239c:	49b2                	lw	s3,12(sp)
2040239e:	6105                	addi	sp,sp,32
204023a0:	8082                	ret
204023a2:	84ae                	mv	s1,a1
204023a4:	89aa                	mv	s3,a0
204023a6:	28d000ef          	jal	ra,20402e32 <_malloc_usable_size_r>
204023aa:	8926                	mv	s2,s1
204023ac:	fe8573e3          	bgeu	a0,s0,20402392 <_realloc_r+0x1e>
204023b0:	85a2                	mv	a1,s0
204023b2:	854e                	mv	a0,s3
204023b4:	84dfe0ef          	jal	ra,20400c00 <_malloc_r>
204023b8:	892a                	mv	s2,a0
204023ba:	dd61                	beqz	a0,20402392 <_realloc_r+0x1e>
204023bc:	85a6                	mv	a1,s1
204023be:	8622                	mv	a2,s0
204023c0:	edefe0ef          	jal	ra,20400a9e <memcpy>
204023c4:	85a6                	mv	a1,s1
204023c6:	854e                	mv	a0,s3
204023c8:	f8cfe0ef          	jal	ra,20400b54 <_free_r>
204023cc:	b7d9                	j	20402392 <_realloc_r+0x1e>

204023ce <_printf_common>:
204023ce:	7179                	addi	sp,sp,-48
204023d0:	ca56                	sw	s5,20(sp)
204023d2:	499c                	lw	a5,16(a1)
204023d4:	8aba                	mv	s5,a4
204023d6:	4598                	lw	a4,8(a1)
204023d8:	d422                	sw	s0,40(sp)
204023da:	d226                	sw	s1,36(sp)
204023dc:	ce4e                	sw	s3,28(sp)
204023de:	cc52                	sw	s4,24(sp)
204023e0:	d606                	sw	ra,44(sp)
204023e2:	d04a                	sw	s2,32(sp)
204023e4:	c85a                	sw	s6,16(sp)
204023e6:	c65e                	sw	s7,12(sp)
204023e8:	89aa                	mv	s3,a0
204023ea:	842e                	mv	s0,a1
204023ec:	84b2                	mv	s1,a2
204023ee:	8a36                	mv	s4,a3
204023f0:	00e7d363          	bge	a5,a4,204023f6 <_printf_common+0x28>
204023f4:	87ba                	mv	a5,a4
204023f6:	c09c                	sw	a5,0(s1)
204023f8:	04344703          	lbu	a4,67(s0)
204023fc:	c319                	beqz	a4,20402402 <_printf_common+0x34>
204023fe:	0785                	addi	a5,a5,1
20402400:	c09c                	sw	a5,0(s1)
20402402:	401c                	lw	a5,0(s0)
20402404:	0207f793          	andi	a5,a5,32
20402408:	c781                	beqz	a5,20402410 <_printf_common+0x42>
2040240a:	409c                	lw	a5,0(s1)
2040240c:	0789                	addi	a5,a5,2
2040240e:	c09c                	sw	a5,0(s1)
20402410:	00042903          	lw	s2,0(s0)
20402414:	00697913          	andi	s2,s2,6
20402418:	00091a63          	bnez	s2,2040242c <_printf_common+0x5e>
2040241c:	01940b13          	addi	s6,s0,25
20402420:	5bfd                	li	s7,-1
20402422:	445c                	lw	a5,12(s0)
20402424:	4098                	lw	a4,0(s1)
20402426:	8f99                	sub	a5,a5,a4
20402428:	04f94c63          	blt	s2,a5,20402480 <_printf_common+0xb2>
2040242c:	401c                	lw	a5,0(s0)
2040242e:	04344683          	lbu	a3,67(s0)
20402432:	0207f793          	andi	a5,a5,32
20402436:	00d036b3          	snez	a3,a3
2040243a:	eba5                	bnez	a5,204024aa <_printf_common+0xdc>
2040243c:	04340613          	addi	a2,s0,67
20402440:	85d2                	mv	a1,s4
20402442:	854e                	mv	a0,s3
20402444:	9a82                	jalr	s5
20402446:	57fd                	li	a5,-1
20402448:	04f50363          	beq	a0,a5,2040248e <_printf_common+0xc0>
2040244c:	401c                	lw	a5,0(s0)
2040244e:	4611                	li	a2,4
20402450:	4098                	lw	a4,0(s1)
20402452:	8b99                	andi	a5,a5,6
20402454:	4454                	lw	a3,12(s0)
20402456:	4481                	li	s1,0
20402458:	00c79763          	bne	a5,a2,20402466 <_printf_common+0x98>
2040245c:	40e684b3          	sub	s1,a3,a4
20402460:	0004d363          	bgez	s1,20402466 <_printf_common+0x98>
20402464:	4481                	li	s1,0
20402466:	441c                	lw	a5,8(s0)
20402468:	4818                	lw	a4,16(s0)
2040246a:	00f75463          	bge	a4,a5,20402472 <_printf_common+0xa4>
2040246e:	8f99                	sub	a5,a5,a4
20402470:	94be                	add	s1,s1,a5
20402472:	4901                	li	s2,0
20402474:	0469                	addi	s0,s0,26
20402476:	5b7d                	li	s6,-1
20402478:	05249863          	bne	s1,s2,204024c8 <_printf_common+0xfa>
2040247c:	4501                	li	a0,0
2040247e:	a809                	j	20402490 <_printf_common+0xc2>
20402480:	4685                	li	a3,1
20402482:	865a                	mv	a2,s6
20402484:	85d2                	mv	a1,s4
20402486:	854e                	mv	a0,s3
20402488:	9a82                	jalr	s5
2040248a:	01751e63          	bne	a0,s7,204024a6 <_printf_common+0xd8>
2040248e:	557d                	li	a0,-1
20402490:	50b2                	lw	ra,44(sp)
20402492:	5422                	lw	s0,40(sp)
20402494:	5492                	lw	s1,36(sp)
20402496:	5902                	lw	s2,32(sp)
20402498:	49f2                	lw	s3,28(sp)
2040249a:	4a62                	lw	s4,24(sp)
2040249c:	4ad2                	lw	s5,20(sp)
2040249e:	4b42                	lw	s6,16(sp)
204024a0:	4bb2                	lw	s7,12(sp)
204024a2:	6145                	addi	sp,sp,48
204024a4:	8082                	ret
204024a6:	0905                	addi	s2,s2,1
204024a8:	bfad                	j	20402422 <_printf_common+0x54>
204024aa:	00d40733          	add	a4,s0,a3
204024ae:	03000613          	li	a2,48
204024b2:	04c701a3          	sb	a2,67(a4) # ffffe043 <metal_segment_heap_target_end+0x7fffa043>
204024b6:	04544703          	lbu	a4,69(s0)
204024ba:	00168793          	addi	a5,a3,1
204024be:	97a2                	add	a5,a5,s0
204024c0:	0689                	addi	a3,a3,2
204024c2:	04e781a3          	sb	a4,67(a5)
204024c6:	bf9d                	j	2040243c <_printf_common+0x6e>
204024c8:	4685                	li	a3,1
204024ca:	8622                	mv	a2,s0
204024cc:	85d2                	mv	a1,s4
204024ce:	854e                	mv	a0,s3
204024d0:	9a82                	jalr	s5
204024d2:	fb650ee3          	beq	a0,s6,2040248e <_printf_common+0xc0>
204024d6:	0905                	addi	s2,s2,1
204024d8:	b745                	j	20402478 <_printf_common+0xaa>

204024da <_printf_i>:
204024da:	7179                	addi	sp,sp,-48
204024dc:	d422                	sw	s0,40(sp)
204024de:	d226                	sw	s1,36(sp)
204024e0:	d04a                	sw	s2,32(sp)
204024e2:	ce4e                	sw	s3,28(sp)
204024e4:	d606                	sw	ra,44(sp)
204024e6:	cc52                	sw	s4,24(sp)
204024e8:	ca56                	sw	s5,20(sp)
204024ea:	c85a                	sw	s6,16(sp)
204024ec:	89b6                	mv	s3,a3
204024ee:	0185c683          	lbu	a3,24(a1)
204024f2:	06e00793          	li	a5,110
204024f6:	8932                	mv	s2,a2
204024f8:	84aa                	mv	s1,a0
204024fa:	842e                	mv	s0,a1
204024fc:	04358613          	addi	a2,a1,67
20402500:	1ef68063          	beq	a3,a5,204026e0 <_printf_i+0x206>
20402504:	06d7e263          	bltu	a5,a3,20402568 <_printf_i+0x8e>
20402508:	06300793          	li	a5,99
2040250c:	0af68263          	beq	a3,a5,204025b0 <_printf_i+0xd6>
20402510:	00d7ed63          	bltu	a5,a3,2040252a <_printf_i+0x50>
20402514:	1e068a63          	beqz	a3,20402708 <_printf_i+0x22e>
20402518:	05800793          	li	a5,88
2040251c:	16f68663          	beq	a3,a5,20402688 <_printf_i+0x1ae>
20402520:	04240a93          	addi	s5,s0,66
20402524:	04d40123          	sb	a3,66(s0)
20402528:	a869                	j	204025c2 <_printf_i+0xe8>
2040252a:	06400793          	li	a5,100
2040252e:	00f68663          	beq	a3,a5,2040253a <_printf_i+0x60>
20402532:	06900793          	li	a5,105
20402536:	fef695e3          	bne	a3,a5,20402520 <_printf_i+0x46>
2040253a:	401c                	lw	a5,0(s0)
2040253c:	4308                	lw	a0,0(a4)
2040253e:	0807f693          	andi	a3,a5,128
20402542:	00450593          	addi	a1,a0,4
20402546:	c2c1                	beqz	a3,204025c6 <_printf_i+0xec>
20402548:	411c                	lw	a5,0(a0)
2040254a:	c30c                	sw	a1,0(a4)
2040254c:	0007d863          	bgez	a5,2040255c <_printf_i+0x82>
20402550:	02d00713          	li	a4,45
20402554:	40f007b3          	neg	a5,a5
20402558:	04e401a3          	sb	a4,67(s0)
2040255c:	00004697          	auipc	a3,0x4
20402560:	95068693          	addi	a3,a3,-1712 # 20405eac <__sf_fake_stdout+0x44>
20402564:	4729                	li	a4,10
20402566:	a065                	j	2040260e <_printf_i+0x134>
20402568:	07300793          	li	a5,115
2040256c:	1af68263          	beq	a3,a5,20402710 <_printf_i+0x236>
20402570:	00d7ef63          	bltu	a5,a3,2040258e <_printf_i+0xb4>
20402574:	06f00793          	li	a5,111
20402578:	04f68f63          	beq	a3,a5,204025d6 <_printf_i+0xfc>
2040257c:	07000793          	li	a5,112
20402580:	faf690e3          	bne	a3,a5,20402520 <_printf_i+0x46>
20402584:	419c                	lw	a5,0(a1)
20402586:	0207e793          	ori	a5,a5,32
2040258a:	c19c                	sw	a5,0(a1)
2040258c:	a809                	j	2040259e <_printf_i+0xc4>
2040258e:	07500793          	li	a5,117
20402592:	04f68263          	beq	a3,a5,204025d6 <_printf_i+0xfc>
20402596:	07800793          	li	a5,120
2040259a:	f8f693e3          	bne	a3,a5,20402520 <_printf_i+0x46>
2040259e:	07800793          	li	a5,120
204025a2:	04f402a3          	sb	a5,69(s0)
204025a6:	00004697          	auipc	a3,0x4
204025aa:	91a68693          	addi	a3,a3,-1766 # 20405ec0 <__sf_fake_stdout+0x58>
204025ae:	a0dd                	j	20402694 <_printf_i+0x1ba>
204025b0:	431c                	lw	a5,0(a4)
204025b2:	04258a93          	addi	s5,a1,66
204025b6:	00478693          	addi	a3,a5,4
204025ba:	439c                	lw	a5,0(a5)
204025bc:	c314                	sw	a3,0(a4)
204025be:	04f58123          	sb	a5,66(a1)
204025c2:	4785                	li	a5,1
204025c4:	a2ad                	j	2040272e <_printf_i+0x254>
204025c6:	0407f693          	andi	a3,a5,64
204025ca:	411c                	lw	a5,0(a0)
204025cc:	c30c                	sw	a1,0(a4)
204025ce:	debd                	beqz	a3,2040254c <_printf_i+0x72>
204025d0:	07c2                	slli	a5,a5,0x10
204025d2:	87c1                	srai	a5,a5,0x10
204025d4:	bfa5                	j	2040254c <_printf_i+0x72>
204025d6:	400c                	lw	a1,0(s0)
204025d8:	431c                	lw	a5,0(a4)
204025da:	0805f813          	andi	a6,a1,128
204025de:	00478513          	addi	a0,a5,4
204025e2:	00080563          	beqz	a6,204025ec <_printf_i+0x112>
204025e6:	c308                	sw	a0,0(a4)
204025e8:	439c                	lw	a5,0(a5)
204025ea:	a039                	j	204025f8 <_printf_i+0x11e>
204025ec:	0405f593          	andi	a1,a1,64
204025f0:	c308                	sw	a0,0(a4)
204025f2:	d9fd                	beqz	a1,204025e8 <_printf_i+0x10e>
204025f4:	0007d783          	lhu	a5,0(a5)
204025f8:	06f00713          	li	a4,111
204025fc:	0ce68a63          	beq	a3,a4,204026d0 <_printf_i+0x1f6>
20402600:	00004697          	auipc	a3,0x4
20402604:	8ac68693          	addi	a3,a3,-1876 # 20405eac <__sf_fake_stdout+0x44>
20402608:	4729                	li	a4,10
2040260a:	040401a3          	sb	zero,67(s0)
2040260e:	404c                	lw	a1,4(s0)
20402610:	c40c                	sw	a1,8(s0)
20402612:	0005c563          	bltz	a1,2040261c <_printf_i+0x142>
20402616:	4008                	lw	a0,0(s0)
20402618:	996d                	andi	a0,a0,-5
2040261a:	c008                	sw	a0,0(s0)
2040261c:	e399                	bnez	a5,20402622 <_printf_i+0x148>
2040261e:	8ab2                	mv	s5,a2
20402620:	cd91                	beqz	a1,2040263c <_printf_i+0x162>
20402622:	8ab2                	mv	s5,a2
20402624:	02e7f5b3          	remu	a1,a5,a4
20402628:	1afd                	addi	s5,s5,-1
2040262a:	95b6                	add	a1,a1,a3
2040262c:	0005c583          	lbu	a1,0(a1)
20402630:	00ba8023          	sb	a1,0(s5)
20402634:	02e7d5b3          	divu	a1,a5,a4
20402638:	0ae7f263          	bgeu	a5,a4,204026dc <_printf_i+0x202>
2040263c:	47a1                	li	a5,8
2040263e:	00f71e63          	bne	a4,a5,2040265a <_printf_i+0x180>
20402642:	401c                	lw	a5,0(s0)
20402644:	8b85                	andi	a5,a5,1
20402646:	cb91                	beqz	a5,2040265a <_printf_i+0x180>
20402648:	4058                	lw	a4,4(s0)
2040264a:	481c                	lw	a5,16(s0)
2040264c:	00e7c763          	blt	a5,a4,2040265a <_printf_i+0x180>
20402650:	03000793          	li	a5,48
20402654:	fefa8fa3          	sb	a5,-1(s5)
20402658:	1afd                	addi	s5,s5,-1
2040265a:	41560633          	sub	a2,a2,s5
2040265e:	c810                	sw	a2,16(s0)
20402660:	874e                	mv	a4,s3
20402662:	86ca                	mv	a3,s2
20402664:	0070                	addi	a2,sp,12
20402666:	85a2                	mv	a1,s0
20402668:	8526                	mv	a0,s1
2040266a:	3395                	jal	204023ce <_printf_common>
2040266c:	5a7d                	li	s4,-1
2040266e:	0d451463          	bne	a0,s4,20402736 <_printf_i+0x25c>
20402672:	557d                	li	a0,-1
20402674:	50b2                	lw	ra,44(sp)
20402676:	5422                	lw	s0,40(sp)
20402678:	5492                	lw	s1,36(sp)
2040267a:	5902                	lw	s2,32(sp)
2040267c:	49f2                	lw	s3,28(sp)
2040267e:	4a62                	lw	s4,24(sp)
20402680:	4ad2                	lw	s5,20(sp)
20402682:	4b42                	lw	s6,16(sp)
20402684:	6145                	addi	sp,sp,48
20402686:	8082                	ret
20402688:	04d582a3          	sb	a3,69(a1)
2040268c:	00004697          	auipc	a3,0x4
20402690:	82068693          	addi	a3,a3,-2016 # 20405eac <__sf_fake_stdout+0x44>
20402694:	400c                	lw	a1,0(s0)
20402696:	4308                	lw	a0,0(a4)
20402698:	0805f813          	andi	a6,a1,128
2040269c:	411c                	lw	a5,0(a0)
2040269e:	0511                	addi	a0,a0,4
204026a0:	02080063          	beqz	a6,204026c0 <_printf_i+0x1e6>
204026a4:	c308                	sw	a0,0(a4)
204026a6:	0015f713          	andi	a4,a1,1
204026aa:	c701                	beqz	a4,204026b2 <_printf_i+0x1d8>
204026ac:	0205e593          	ori	a1,a1,32
204026b0:	c00c                	sw	a1,0(s0)
204026b2:	4741                	li	a4,16
204026b4:	fbb9                	bnez	a5,2040260a <_printf_i+0x130>
204026b6:	400c                	lw	a1,0(s0)
204026b8:	fdf5f593          	andi	a1,a1,-33
204026bc:	c00c                	sw	a1,0(s0)
204026be:	b7b1                	j	2040260a <_printf_i+0x130>
204026c0:	0405f813          	andi	a6,a1,64
204026c4:	c308                	sw	a0,0(a4)
204026c6:	fe0800e3          	beqz	a6,204026a6 <_printf_i+0x1cc>
204026ca:	07c2                	slli	a5,a5,0x10
204026cc:	83c1                	srli	a5,a5,0x10
204026ce:	bfe1                	j	204026a6 <_printf_i+0x1cc>
204026d0:	00003697          	auipc	a3,0x3
204026d4:	7dc68693          	addi	a3,a3,2012 # 20405eac <__sf_fake_stdout+0x44>
204026d8:	4721                	li	a4,8
204026da:	bf05                	j	2040260a <_printf_i+0x130>
204026dc:	87ae                	mv	a5,a1
204026de:	b799                	j	20402624 <_printf_i+0x14a>
204026e0:	4194                	lw	a3,0(a1)
204026e2:	431c                	lw	a5,0(a4)
204026e4:	49cc                	lw	a1,20(a1)
204026e6:	0806f813          	andi	a6,a3,128
204026ea:	00478513          	addi	a0,a5,4
204026ee:	00080663          	beqz	a6,204026fa <_printf_i+0x220>
204026f2:	c308                	sw	a0,0(a4)
204026f4:	439c                	lw	a5,0(a5)
204026f6:	c38c                	sw	a1,0(a5)
204026f8:	a801                	j	20402708 <_printf_i+0x22e>
204026fa:	c308                	sw	a0,0(a4)
204026fc:	0406f693          	andi	a3,a3,64
20402700:	439c                	lw	a5,0(a5)
20402702:	daf5                	beqz	a3,204026f6 <_printf_i+0x21c>
20402704:	00b79023          	sh	a1,0(a5)
20402708:	00042823          	sw	zero,16(s0)
2040270c:	8ab2                	mv	s5,a2
2040270e:	bf89                	j	20402660 <_printf_i+0x186>
20402710:	431c                	lw	a5,0(a4)
20402712:	41d0                	lw	a2,4(a1)
20402714:	4581                	li	a1,0
20402716:	00478693          	addi	a3,a5,4
2040271a:	c314                	sw	a3,0(a4)
2040271c:	0007aa83          	lw	s5,0(a5)
20402720:	8556                	mv	a0,s5
20402722:	3925                	jal	2040235a <memchr>
20402724:	c501                	beqz	a0,2040272c <_printf_i+0x252>
20402726:	41550533          	sub	a0,a0,s5
2040272a:	c048                	sw	a0,4(s0)
2040272c:	405c                	lw	a5,4(s0)
2040272e:	c81c                	sw	a5,16(s0)
20402730:	040401a3          	sb	zero,67(s0)
20402734:	b735                	j	20402660 <_printf_i+0x186>
20402736:	4814                	lw	a3,16(s0)
20402738:	8656                	mv	a2,s5
2040273a:	85ca                	mv	a1,s2
2040273c:	8526                	mv	a0,s1
2040273e:	9982                	jalr	s3
20402740:	f34509e3          	beq	a0,s4,20402672 <_printf_i+0x198>
20402744:	401c                	lw	a5,0(s0)
20402746:	8b89                	andi	a5,a5,2
20402748:	e78d                	bnez	a5,20402772 <_printf_i+0x298>
2040274a:	47b2                	lw	a5,12(sp)
2040274c:	4448                	lw	a0,12(s0)
2040274e:	f2f553e3          	bge	a0,a5,20402674 <_printf_i+0x19a>
20402752:	853e                	mv	a0,a5
20402754:	b705                	j	20402674 <_printf_i+0x19a>
20402756:	4685                	li	a3,1
20402758:	8656                	mv	a2,s5
2040275a:	85ca                	mv	a1,s2
2040275c:	8526                	mv	a0,s1
2040275e:	9982                	jalr	s3
20402760:	f16509e3          	beq	a0,s6,20402672 <_printf_i+0x198>
20402764:	0a05                	addi	s4,s4,1
20402766:	445c                	lw	a5,12(s0)
20402768:	4732                	lw	a4,12(sp)
2040276a:	8f99                	sub	a5,a5,a4
2040276c:	fefa45e3          	blt	s4,a5,20402756 <_printf_i+0x27c>
20402770:	bfe9                	j	2040274a <_printf_i+0x270>
20402772:	4a01                	li	s4,0
20402774:	01940a93          	addi	s5,s0,25
20402778:	5b7d                	li	s6,-1
2040277a:	b7f5                	j	20402766 <_printf_i+0x28c>

2040277c <_scanf_chars>:
2040277c:	459c                	lw	a5,8(a1)
2040277e:	1101                	addi	sp,sp,-32
20402780:	cc22                	sw	s0,24(sp)
20402782:	ca26                	sw	s1,20(sp)
20402784:	c452                	sw	s4,8(sp)
20402786:	ce06                	sw	ra,28(sp)
20402788:	c84a                	sw	s2,16(sp)
2040278a:	c64e                	sw	s3,12(sp)
2040278c:	c256                	sw	s5,4(sp)
2040278e:	c05a                	sw	s6,0(sp)
20402790:	8a2a                	mv	s4,a0
20402792:	842e                	mv	s0,a1
20402794:	84b2                	mv	s1,a2
20402796:	e791                	bnez	a5,204027a2 <_scanf_chars+0x26>
20402798:	4d98                	lw	a4,24(a1)
2040279a:	4785                	li	a5,1
2040279c:	c311                	beqz	a4,204027a0 <_scanf_chars+0x24>
2040279e:	57fd                	li	a5,-1
204027a0:	c41c                	sw	a5,8(s0)
204027a2:	401c                	lw	a5,0(s0)
204027a4:	8bc1                	andi	a5,a5,16
204027a6:	e799                	bnez	a5,204027b4 <_scanf_chars+0x38>
204027a8:	429c                	lw	a5,0(a3)
204027aa:	00478713          	addi	a4,a5,4
204027ae:	c298                	sw	a4,0(a3)
204027b0:	0007a983          	lw	s3,0(a5)
204027b4:	4901                	li	s2,0
204027b6:	4a85                	li	s5,1
204027b8:	4b09                	li	s6,2
204027ba:	4c08                	lw	a0,24(s0)
204027bc:	c51d                	beqz	a0,204027ea <_scanf_chars+0x6e>
204027be:	09551263          	bne	a0,s5,20402842 <_scanf_chars+0xc6>
204027c2:	409c                	lw	a5,0(s1)
204027c4:	0007c703          	lbu	a4,0(a5)
204027c8:	485c                	lw	a5,20(s0)
204027ca:	97ba                	add	a5,a5,a4
204027cc:	0007c783          	lbu	a5,0(a5)
204027d0:	ef89                	bnez	a5,204027ea <_scanf_chars+0x6e>
204027d2:	04091863          	bnez	s2,20402822 <_scanf_chars+0xa6>
204027d6:	40f2                	lw	ra,28(sp)
204027d8:	4462                	lw	s0,24(sp)
204027da:	44d2                	lw	s1,20(sp)
204027dc:	4942                	lw	s2,16(sp)
204027de:	49b2                	lw	s3,12(sp)
204027e0:	4a22                	lw	s4,8(sp)
204027e2:	4a92                	lw	s5,4(sp)
204027e4:	4b02                	lw	s6,0(sp)
204027e6:	6105                	addi	sp,sp,32
204027e8:	8082                	ret
204027ea:	401c                	lw	a5,0(s0)
204027ec:	0905                	addi	s2,s2,1
204027ee:	8bc1                	andi	a5,a5,16
204027f0:	e799                	bnez	a5,204027fe <_scanf_chars+0x82>
204027f2:	409c                	lw	a5,0(s1)
204027f4:	0985                	addi	s3,s3,1
204027f6:	0007c783          	lbu	a5,0(a5)
204027fa:	fef98fa3          	sb	a5,-1(s3)
204027fe:	4098                	lw	a4,0(s1)
20402800:	40dc                	lw	a5,4(s1)
20402802:	0705                	addi	a4,a4,1
20402804:	c098                	sw	a4,0(s1)
20402806:	4418                	lw	a4,8(s0)
20402808:	17fd                	addi	a5,a5,-1
2040280a:	c0dc                	sw	a5,4(s1)
2040280c:	177d                	addi	a4,a4,-1
2040280e:	c418                	sw	a4,8(s0)
20402810:	cb09                	beqz	a4,20402822 <_scanf_chars+0xa6>
20402812:	faf044e3          	bgtz	a5,204027ba <_scanf_chars+0x3e>
20402816:	18042783          	lw	a5,384(s0)
2040281a:	85a6                	mv	a1,s1
2040281c:	8552                	mv	a0,s4
2040281e:	9782                	jalr	a5
20402820:	dd49                	beqz	a0,204027ba <_scanf_chars+0x3e>
20402822:	401c                	lw	a5,0(s0)
20402824:	8bc1                	andi	a5,a5,16
20402826:	eb81                	bnez	a5,20402836 <_scanf_chars+0xba>
20402828:	445c                	lw	a5,12(s0)
2040282a:	0785                	addi	a5,a5,1
2040282c:	c45c                	sw	a5,12(s0)
2040282e:	4c1c                	lw	a5,24(s0)
20402830:	c399                	beqz	a5,20402836 <_scanf_chars+0xba>
20402832:	00098023          	sb	zero,0(s3)
20402836:	481c                	lw	a5,16(s0)
20402838:	4501                	li	a0,0
2040283a:	993e                	add	s2,s2,a5
2040283c:	01242823          	sw	s2,16(s0)
20402840:	bf59                	j	204027d6 <_scanf_chars+0x5a>
20402842:	01651c63          	bne	a0,s6,2040285a <_scanf_chars+0xde>
20402846:	98fff0ef          	jal	ra,204021d4 <__locale_ctype_ptr>
2040284a:	409c                	lw	a5,0(s1)
2040284c:	0007c783          	lbu	a5,0(a5)
20402850:	953e                	add	a0,a0,a5
20402852:	00154783          	lbu	a5,1(a0)
20402856:	8ba1                	andi	a5,a5,8
20402858:	dbc9                	beqz	a5,204027ea <_scanf_chars+0x6e>
2040285a:	fc0914e3          	bnez	s2,20402822 <_scanf_chars+0xa6>
2040285e:	4c08                	lw	a0,24(s0)
20402860:	4785                	li	a5,1
20402862:	fcf510e3          	bne	a0,a5,20402822 <_scanf_chars+0xa6>
20402866:	bf85                	j	204027d6 <_scanf_chars+0x5a>

20402868 <_scanf_i>:
20402868:	715d                	addi	sp,sp,-80
2040286a:	00003797          	auipc	a5,0x3
2040286e:	67e78793          	addi	a5,a5,1662 # 20405ee8 <__sf_fake_stdout+0x80>
20402872:	c0ca                	sw	s2,64(sp)
20402874:	c23e                	sw	a5,4(sp)
20402876:	8936                	mv	s2,a3
20402878:	00003797          	auipc	a5,0x3
2040287c:	67478793          	addi	a5,a5,1652 # 20405eec <__sf_fake_stdout+0x84>
20402880:	4d94                	lw	a3,24(a1)
20402882:	c43e                	sw	a5,8(sp)
20402884:	00003797          	auipc	a5,0x3
20402888:	66c78793          	addi	a5,a5,1644 # 20405ef0 <__sf_fake_stdout+0x88>
2040288c:	c4a2                	sw	s0,72(sp)
2040288e:	de4e                	sw	s3,60(sp)
20402890:	d85a                	sw	s6,48(sp)
20402892:	ce6e                	sw	s11,28(sp)
20402894:	c63e                	sw	a5,12(sp)
20402896:	c686                	sw	ra,76(sp)
20402898:	c2a6                	sw	s1,68(sp)
2040289a:	dc52                	sw	s4,56(sp)
2040289c:	da56                	sw	s5,52(sp)
2040289e:	d65e                	sw	s7,44(sp)
204028a0:	d462                	sw	s8,40(sp)
204028a2:	d266                	sw	s9,36(sp)
204028a4:	d06a                	sw	s10,32(sp)
204028a6:	478d                	li	a5,3
204028a8:	89aa                	mv	s3,a0
204028aa:	842e                	mv	s0,a1
204028ac:	8db2                	mv	s11,a2
204028ae:	00000b17          	auipc	s6,0x0
204028b2:	4eab0b13          	addi	s6,s6,1258 # 20402d98 <_strtoul_r>
204028b6:	00f69663          	bne	a3,a5,204028c2 <_scanf_i+0x5a>
204028ba:	00000b17          	auipc	s6,0x0
204028be:	38cb0b13          	addi	s6,s6,908 # 20402c46 <_strtol_r>
204028c2:	441c                	lw	a5,8(s0)
204028c4:	15c00693          	li	a3,348
204028c8:	4a01                	li	s4,0
204028ca:	fff78613          	addi	a2,a5,-1
204028ce:	00c6f763          	bgeu	a3,a2,204028dc <_scanf_i+0x74>
204028d2:	ea378a13          	addi	s4,a5,-349
204028d6:	15d00793          	li	a5,349
204028da:	c41c                	sw	a5,8(s0)
204028dc:	401c                	lw	a5,0(s0)
204028de:	6685                	lui	a3,0x1
204028e0:	d0068693          	addi	a3,a3,-768 # d00 <__stack_size+0x500>
204028e4:	01c40493          	addi	s1,s0,28
204028e8:	8fd5                	or	a5,a5,a3
204028ea:	c01c                	sw	a5,0(s0)
204028ec:	00410c13          	addi	s8,sp,4
204028f0:	8aa6                	mv	s5,s1
204028f2:	4b81                	li	s7,0
204028f4:	20000c93          	li	s9,512
204028f8:	000da783          	lw	a5,0(s11)
204028fc:	000c2503          	lw	a0,0(s8)
20402900:	4609                	li	a2,2
20402902:	0007c583          	lbu	a1,0(a5)
20402906:	a55ff0ef          	jal	ra,2040235a <memchr>
2040290a:	c125                	beqz	a0,2040296a <_scanf_i+0x102>
2040290c:	4785                	li	a5,1
2040290e:	0efb9163          	bne	s7,a5,204029f0 <_scanf_i+0x188>
20402912:	405c                	lw	a5,4(s0)
20402914:	e799                	bnez	a5,20402922 <_scanf_i+0xba>
20402916:	401c                	lw	a5,0(s0)
20402918:	4721                	li	a4,8
2040291a:	c058                	sw	a4,4(s0)
2040291c:	2007e793          	ori	a5,a5,512
20402920:	c01c                	sw	a5,0(s0)
20402922:	401c                	lw	a5,0(s0)
20402924:	aff7f793          	andi	a5,a5,-1281
20402928:	c01c                	sw	a5,0(s0)
2040292a:	441c                	lw	a5,8(s0)
2040292c:	fff78613          	addi	a2,a5,-1
20402930:	c410                	sw	a2,8(s0)
20402932:	cf85                	beqz	a5,2040296a <_scanf_i+0x102>
20402934:	000da603          	lw	a2,0(s11)
20402938:	001a8d13          	addi	s10,s5,1
2040293c:	00160793          	addi	a5,a2,1
20402940:	00fda023          	sw	a5,0(s11)
20402944:	00064603          	lbu	a2,0(a2)
20402948:	00ca8023          	sb	a2,0(s5)
2040294c:	004da603          	lw	a2,4(s11)
20402950:	8aea                	mv	s5,s10
20402952:	167d                	addi	a2,a2,-1
20402954:	00cda223          	sw	a2,4(s11)
20402958:	00c04963          	bgtz	a2,2040296a <_scanf_i+0x102>
2040295c:	18042603          	lw	a2,384(s0)
20402960:	85ee                	mv	a1,s11
20402962:	854e                	mv	a0,s3
20402964:	9602                	jalr	a2
20402966:	10051b63          	bnez	a0,20402a7c <_scanf_i+0x214>
2040296a:	0b85                	addi	s7,s7,1
2040296c:	478d                	li	a5,3
2040296e:	0c11                	addi	s8,s8,4
20402970:	f8fb94e3          	bne	s7,a5,204028f8 <_scanf_i+0x90>
20402974:	405c                	lw	a5,4(s0)
20402976:	e399                	bnez	a5,2040297c <_scanf_i+0x114>
20402978:	47a9                	li	a5,10
2040297a:	c05c                	sw	a5,4(s0)
2040297c:	405c                	lw	a5,4(s0)
2040297e:	4848                	lw	a0,20(s0)
20402980:	00003597          	auipc	a1,0x3
20402984:	56458593          	addi	a1,a1,1380 # 20405ee4 <__sf_fake_stdout+0x7c>
20402988:	8d9d                	sub	a1,a1,a5
2040298a:	7bfd                	lui	s7,0xfffff
2040298c:	6c05                	lui	s8,0x1
2040298e:	8d56                	mv	s10,s5
20402990:	94aff0ef          	jal	ra,20401ada <__sccl>
20402994:	4a81                	li	s5,0
20402996:	03000c93          	li	s9,48
2040299a:	6ffb8b93          	addi	s7,s7,1791 # fffff6ff <metal_segment_heap_target_end+0x7fffb6ff>
2040299e:	800c0c13          	addi	s8,s8,-2048 # 800 <__stack_size>
204029a2:	4414                	lw	a3,8(s0)
204029a4:	4010                	lw	a2,0(s0)
204029a6:	c2c9                	beqz	a3,20402a28 <_scanf_i+0x1c0>
204029a8:	000da503          	lw	a0,0(s11)
204029ac:	484c                	lw	a1,20(s0)
204029ae:	00054803          	lbu	a6,0(a0)
204029b2:	95c2                	add	a1,a1,a6
204029b4:	0005c583          	lbu	a1,0(a1)
204029b8:	c9a5                	beqz	a1,20402a28 <_scanf_i+0x1c0>
204029ba:	05981863          	bne	a6,s9,20402a0a <_scanf_i+0x1a2>
204029be:	018675b3          	and	a1,a2,s8
204029c2:	c5a1                	beqz	a1,20402a0a <_scanf_i+0x1a2>
204029c4:	0a85                	addi	s5,s5,1
204029c6:	000a0563          	beqz	s4,204029d0 <_scanf_i+0x168>
204029ca:	0685                	addi	a3,a3,1
204029cc:	1a7d                	addi	s4,s4,-1
204029ce:	c414                	sw	a3,8(s0)
204029d0:	004da683          	lw	a3,4(s11)
204029d4:	16fd                	addi	a3,a3,-1
204029d6:	00dda223          	sw	a3,4(s11)
204029da:	04d05163          	blez	a3,20402a1c <_scanf_i+0x1b4>
204029de:	000da683          	lw	a3,0(s11)
204029e2:	0685                	addi	a3,a3,1
204029e4:	00dda023          	sw	a3,0(s11)
204029e8:	4414                	lw	a3,8(s0)
204029ea:	16fd                	addi	a3,a3,-1
204029ec:	c414                	sw	a3,8(s0)
204029ee:	bf55                	j	204029a2 <_scanf_i+0x13a>
204029f0:	4789                	li	a5,2
204029f2:	f2fb9ce3          	bne	s7,a5,2040292a <_scanf_i+0xc2>
204029f6:	401c                	lw	a5,0(s0)
204029f8:	6007f613          	andi	a2,a5,1536
204029fc:	f79617e3          	bne	a2,s9,2040296a <_scanf_i+0x102>
20402a00:	4741                	li	a4,16
20402a02:	c058                	sw	a4,4(s0)
20402a04:	1007e793          	ori	a5,a5,256
20402a08:	b705                	j	20402928 <_scanf_i+0xc0>
20402a0a:	01767633          	and	a2,a2,s7
20402a0e:	c010                	sw	a2,0(s0)
20402a10:	00054683          	lbu	a3,0(a0)
20402a14:	0d05                	addi	s10,s10,1
20402a16:	fedd0fa3          	sb	a3,-1(s10)
20402a1a:	bf5d                	j	204029d0 <_scanf_i+0x168>
20402a1c:	18042683          	lw	a3,384(s0)
20402a20:	85ee                	mv	a1,s11
20402a22:	854e                	mv	a0,s3
20402a24:	9682                	jalr	a3
20402a26:	d169                	beqz	a0,204029e8 <_scanf_i+0x180>
20402a28:	4014                	lw	a3,0(s0)
20402a2a:	1006f693          	andi	a3,a3,256
20402a2e:	c285                	beqz	a3,20402a4e <_scanf_i+0x1e6>
20402a30:	01a4fc63          	bgeu	s1,s10,20402a48 <_scanf_i+0x1e0>
20402a34:	fffd4583          	lbu	a1,-1(s10)
20402a38:	17c42683          	lw	a3,380(s0)
20402a3c:	fffd0a13          	addi	s4,s10,-1
20402a40:	866e                	mv	a2,s11
20402a42:	854e                	mv	a0,s3
20402a44:	9682                	jalr	a3
20402a46:	8d52                	mv	s10,s4
20402a48:	4505                	li	a0,1
20402a4a:	049d0f63          	beq	s10,s1,20402aa8 <_scanf_i+0x240>
20402a4e:	4018                	lw	a4,0(s0)
20402a50:	8b41                	andi	a4,a4,16
20402a52:	e721                	bnez	a4,20402a9a <_scanf_i+0x232>
20402a54:	000d0023          	sb	zero,0(s10)
20402a58:	4054                	lw	a3,4(s0)
20402a5a:	4601                	li	a2,0
20402a5c:	85a6                	mv	a1,s1
20402a5e:	854e                	mv	a0,s3
20402a60:	9b02                	jalr	s6
20402a62:	4014                	lw	a3,0(s0)
20402a64:	00092703          	lw	a4,0(s2)
20402a68:	0206f613          	andi	a2,a3,32
20402a6c:	ca11                	beqz	a2,20402a80 <_scanf_i+0x218>
20402a6e:	00470693          	addi	a3,a4,4
20402a72:	00d92023          	sw	a3,0(s2)
20402a76:	4318                	lw	a4,0(a4)
20402a78:	c308                	sw	a0,0(a4)
20402a7a:	a829                	j	20402a94 <_scanf_i+0x22c>
20402a7c:	4a81                	li	s5,0
20402a7e:	b76d                	j	20402a28 <_scanf_i+0x1c0>
20402a80:	0016f593          	andi	a1,a3,1
20402a84:	00470613          	addi	a2,a4,4
20402a88:	cd9d                	beqz	a1,20402ac6 <_scanf_i+0x25e>
20402a8a:	00c92023          	sw	a2,0(s2)
20402a8e:	4318                	lw	a4,0(a4)
20402a90:	00a71023          	sh	a0,0(a4)
20402a94:	4458                	lw	a4,12(s0)
20402a96:	0705                	addi	a4,a4,1
20402a98:	c458                	sw	a4,12(s0)
20402a9a:	481c                	lw	a5,16(s0)
20402a9c:	409d04b3          	sub	s1,s10,s1
20402aa0:	94d6                	add	s1,s1,s5
20402aa2:	94be                	add	s1,s1,a5
20402aa4:	c804                	sw	s1,16(s0)
20402aa6:	4501                	li	a0,0
20402aa8:	40b6                	lw	ra,76(sp)
20402aaa:	4426                	lw	s0,72(sp)
20402aac:	4496                	lw	s1,68(sp)
20402aae:	4906                	lw	s2,64(sp)
20402ab0:	59f2                	lw	s3,60(sp)
20402ab2:	5a62                	lw	s4,56(sp)
20402ab4:	5ad2                	lw	s5,52(sp)
20402ab6:	5b42                	lw	s6,48(sp)
20402ab8:	5bb2                	lw	s7,44(sp)
20402aba:	5c22                	lw	s8,40(sp)
20402abc:	5c92                	lw	s9,36(sp)
20402abe:	5d02                	lw	s10,32(sp)
20402ac0:	4df2                	lw	s11,28(sp)
20402ac2:	6161                	addi	sp,sp,80
20402ac4:	8082                	ret
20402ac6:	00c92023          	sw	a2,0(s2)
20402aca:	b775                	j	20402a76 <_scanf_i+0x20e>

20402acc <_read_r>:
20402acc:	1141                	addi	sp,sp,-16
20402ace:	c422                	sw	s0,8(sp)
20402ad0:	842a                	mv	s0,a0
20402ad2:	852e                	mv	a0,a1
20402ad4:	85b2                	mv	a1,a2
20402ad6:	8636                	mv	a2,a3
20402ad8:	5fc00797          	auipc	a5,0x5fc00
20402adc:	7607a223          	sw	zero,1892(a5) # 8000323c <errno>
20402ae0:	c606                	sw	ra,12(sp)
20402ae2:	22b000ef          	jal	ra,2040350c <_read>
20402ae6:	57fd                	li	a5,-1
20402ae8:	00f51963          	bne	a0,a5,20402afa <_read_r+0x2e>
20402aec:	5fc00797          	auipc	a5,0x5fc00
20402af0:	75078793          	addi	a5,a5,1872 # 8000323c <errno>
20402af4:	439c                	lw	a5,0(a5)
20402af6:	c391                	beqz	a5,20402afa <_read_r+0x2e>
20402af8:	c01c                	sw	a5,0(s0)
20402afa:	40b2                	lw	ra,12(sp)
20402afc:	4422                	lw	s0,8(sp)
20402afe:	0141                	addi	sp,sp,16
20402b00:	8082                	ret

20402b02 <_strtol_l.isra.0>:
20402b02:	7179                	addi	sp,sp,-48
20402b04:	d04a                	sw	s2,32(sp)
20402b06:	ce4e                	sw	s3,28(sp)
20402b08:	d606                	sw	ra,44(sp)
20402b0a:	d422                	sw	s0,40(sp)
20402b0c:	d226                	sw	s1,36(sp)
20402b0e:	89aa                	mv	s3,a0
20402b10:	892e                	mv	s2,a1
20402b12:	00190493          	addi	s1,s2,1
20402b16:	fff4c403          	lbu	s0,-1(s1)
20402b1a:	853a                	mv	a0,a4
20402b1c:	c636                	sw	a3,12(sp)
20402b1e:	c432                	sw	a2,8(sp)
20402b20:	c22e                	sw	a1,4(sp)
20402b22:	c03a                	sw	a4,0(sp)
20402b24:	eaaff0ef          	jal	ra,204021ce <__locale_ctype_ptr_l>
20402b28:	9522                	add	a0,a0,s0
20402b2a:	00154783          	lbu	a5,1(a0)
20402b2e:	4702                	lw	a4,0(sp)
20402b30:	4592                	lw	a1,4(sp)
20402b32:	8ba1                	andi	a5,a5,8
20402b34:	4622                	lw	a2,8(sp)
20402b36:	46b2                	lw	a3,12(sp)
20402b38:	e7c9                	bnez	a5,20402bc2 <_strtol_l.isra.0+0xc0>
20402b3a:	02d00793          	li	a5,45
20402b3e:	08f41463          	bne	s0,a5,20402bc6 <_strtol_l.isra.0+0xc4>
20402b42:	0004c783          	lbu	a5,0(s1)
20402b46:	4305                	li	t1,1
20402b48:	00290493          	addi	s1,s2,2
20402b4c:	c6fd                	beqz	a3,20402c3a <_strtol_l.isra.0+0x138>
20402b4e:	4741                	li	a4,16
20402b50:	02e69263          	bne	a3,a4,20402b74 <_strtol_l.isra.0+0x72>
20402b54:	03000713          	li	a4,48
20402b58:	00e79e63          	bne	a5,a4,20402b74 <_strtol_l.isra.0+0x72>
20402b5c:	0004c783          	lbu	a5,0(s1)
20402b60:	05800713          	li	a4,88
20402b64:	0df7f793          	andi	a5,a5,223
20402b68:	0ce79463          	bne	a5,a4,20402c30 <_strtol_l.isra.0+0x12e>
20402b6c:	0014c783          	lbu	a5,1(s1)
20402b70:	46c1                	li	a3,16
20402b72:	0489                	addi	s1,s1,2
20402b74:	800008b7          	lui	a7,0x80000
20402b78:	00031463          	bnez	t1,20402b80 <_strtol_l.isra.0+0x7e>
20402b7c:	fff8c893          	not	a7,a7
20402b80:	02d8ff33          	remu	t5,a7,a3
20402b84:	4801                	li	a6,0
20402b86:	4501                	li	a0,0
20402b88:	4fa5                	li	t6,9
20402b8a:	4ee5                	li	t4,25
20402b8c:	52fd                	li	t0,-1
20402b8e:	02d8de33          	divu	t3,a7,a3
20402b92:	fd078713          	addi	a4,a5,-48
20402b96:	04efe463          	bltu	t6,a4,20402bde <_strtol_l.isra.0+0xdc>
20402b9a:	87ba                	mv	a5,a4
20402b9c:	04d7df63          	bge	a5,a3,20402bfa <_strtol_l.isra.0+0xf8>
20402ba0:	00580d63          	beq	a6,t0,20402bba <_strtol_l.isra.0+0xb8>
20402ba4:	587d                	li	a6,-1
20402ba6:	00ae6a63          	bltu	t3,a0,20402bba <_strtol_l.isra.0+0xb8>
20402baa:	00ae1463          	bne	t3,a0,20402bb2 <_strtol_l.isra.0+0xb0>
20402bae:	00ff4663          	blt	t5,a5,20402bba <_strtol_l.isra.0+0xb8>
20402bb2:	4805                	li	a6,1
20402bb4:	02a68533          	mul	a0,a3,a0
20402bb8:	953e                	add	a0,a0,a5
20402bba:	0485                	addi	s1,s1,1
20402bbc:	fff4c783          	lbu	a5,-1(s1)
20402bc0:	bfc9                	j	20402b92 <_strtol_l.isra.0+0x90>
20402bc2:	8926                	mv	s2,s1
20402bc4:	b7b9                	j	20402b12 <_strtol_l.isra.0+0x10>
20402bc6:	02b00793          	li	a5,43
20402bca:	00f40563          	beq	s0,a5,20402bd4 <_strtol_l.isra.0+0xd2>
20402bce:	87a2                	mv	a5,s0
20402bd0:	4301                	li	t1,0
20402bd2:	bfad                	j	20402b4c <_strtol_l.isra.0+0x4a>
20402bd4:	0004c783          	lbu	a5,0(s1)
20402bd8:	00290493          	addi	s1,s2,2
20402bdc:	bfd5                	j	20402bd0 <_strtol_l.isra.0+0xce>
20402bde:	fbf78713          	addi	a4,a5,-65
20402be2:	00eee563          	bltu	t4,a4,20402bec <_strtol_l.isra.0+0xea>
20402be6:	fc978793          	addi	a5,a5,-55
20402bea:	bf4d                	j	20402b9c <_strtol_l.isra.0+0x9a>
20402bec:	f9f78713          	addi	a4,a5,-97
20402bf0:	00eee563          	bltu	t4,a4,20402bfa <_strtol_l.isra.0+0xf8>
20402bf4:	fa978793          	addi	a5,a5,-87
20402bf8:	b755                	j	20402b9c <_strtol_l.isra.0+0x9a>
20402bfa:	57fd                	li	a5,-1
20402bfc:	00f81f63          	bne	a6,a5,20402c1a <_strtol_l.isra.0+0x118>
20402c00:	02200793          	li	a5,34
20402c04:	00f9a023          	sw	a5,0(s3)
20402c08:	8546                	mv	a0,a7
20402c0a:	ee19                	bnez	a2,20402c28 <_strtol_l.isra.0+0x126>
20402c0c:	50b2                	lw	ra,44(sp)
20402c0e:	5422                	lw	s0,40(sp)
20402c10:	5492                	lw	s1,36(sp)
20402c12:	5902                	lw	s2,32(sp)
20402c14:	49f2                	lw	s3,28(sp)
20402c16:	6145                	addi	sp,sp,48
20402c18:	8082                	ret
20402c1a:	00030463          	beqz	t1,20402c22 <_strtol_l.isra.0+0x120>
20402c1e:	40a00533          	neg	a0,a0
20402c22:	d66d                	beqz	a2,20402c0c <_strtol_l.isra.0+0x10a>
20402c24:	00080463          	beqz	a6,20402c2c <_strtol_l.isra.0+0x12a>
20402c28:	fff48593          	addi	a1,s1,-1
20402c2c:	c20c                	sw	a1,0(a2)
20402c2e:	bff9                	j	20402c0c <_strtol_l.isra.0+0x10a>
20402c30:	03000793          	li	a5,48
20402c34:	f2a1                	bnez	a3,20402b74 <_strtol_l.isra.0+0x72>
20402c36:	46a1                	li	a3,8
20402c38:	bf35                	j	20402b74 <_strtol_l.isra.0+0x72>
20402c3a:	03000713          	li	a4,48
20402c3e:	f0e78fe3          	beq	a5,a4,20402b5c <_strtol_l.isra.0+0x5a>
20402c42:	46a9                	li	a3,10
20402c44:	bf05                	j	20402b74 <_strtol_l.isra.0+0x72>

20402c46 <_strtol_r>:
20402c46:	5fbfe797          	auipc	a5,0x5fbfe
20402c4a:	d4278793          	addi	a5,a5,-702 # 80000988 <_impure_ptr>
20402c4e:	439c                	lw	a5,0(a5)
20402c50:	5398                	lw	a4,32(a5)
20402c52:	e709                	bnez	a4,20402c5c <_strtol_r+0x16>
20402c54:	5fbfd717          	auipc	a4,0x5fbfd
20402c58:	40c70713          	addi	a4,a4,1036 # 80000060 <__global_locale>
20402c5c:	b55d                	j	20402b02 <_strtol_l.isra.0>

20402c5e <_strtoul_l.isra.0>:
20402c5e:	7179                	addi	sp,sp,-48
20402c60:	d04a                	sw	s2,32(sp)
20402c62:	ce4e                	sw	s3,28(sp)
20402c64:	d606                	sw	ra,44(sp)
20402c66:	d422                	sw	s0,40(sp)
20402c68:	d226                	sw	s1,36(sp)
20402c6a:	89aa                	mv	s3,a0
20402c6c:	892e                	mv	s2,a1
20402c6e:	00190493          	addi	s1,s2,1
20402c72:	fff4c403          	lbu	s0,-1(s1)
20402c76:	853a                	mv	a0,a4
20402c78:	c636                	sw	a3,12(sp)
20402c7a:	c432                	sw	a2,8(sp)
20402c7c:	c22e                	sw	a1,4(sp)
20402c7e:	c03a                	sw	a4,0(sp)
20402c80:	d4eff0ef          	jal	ra,204021ce <__locale_ctype_ptr_l>
20402c84:	9522                	add	a0,a0,s0
20402c86:	00154783          	lbu	a5,1(a0)
20402c8a:	4702                	lw	a4,0(sp)
20402c8c:	4592                	lw	a1,4(sp)
20402c8e:	8ba1                	andi	a5,a5,8
20402c90:	4622                	lw	a2,8(sp)
20402c92:	46b2                	lw	a3,12(sp)
20402c94:	efbd                	bnez	a5,20402d12 <_strtoul_l.isra.0+0xb4>
20402c96:	02d00793          	li	a5,45
20402c9a:	06f41e63          	bne	s0,a5,20402d16 <_strtoul_l.isra.0+0xb8>
20402c9e:	0004c783          	lbu	a5,0(s1)
20402ca2:	4305                	li	t1,1
20402ca4:	00290493          	addi	s1,s2,2
20402ca8:	c2f5                	beqz	a3,20402d8c <_strtoul_l.isra.0+0x12e>
20402caa:	4741                	li	a4,16
20402cac:	02e69263          	bne	a3,a4,20402cd0 <_strtoul_l.isra.0+0x72>
20402cb0:	03000713          	li	a4,48
20402cb4:	00e79e63          	bne	a5,a4,20402cd0 <_strtoul_l.isra.0+0x72>
20402cb8:	0004c783          	lbu	a5,0(s1)
20402cbc:	05800713          	li	a4,88
20402cc0:	0df7f793          	andi	a5,a5,223
20402cc4:	0ae79f63          	bne	a5,a4,20402d82 <_strtoul_l.isra.0+0x124>
20402cc8:	0014c783          	lbu	a5,1(s1)
20402ccc:	46c1                	li	a3,16
20402cce:	0489                	addi	s1,s1,2
20402cd0:	577d                	li	a4,-1
20402cd2:	02d75e33          	divu	t3,a4,a3
20402cd6:	4801                	li	a6,0
20402cd8:	4501                	li	a0,0
20402cda:	4f25                	li	t5,9
20402cdc:	4ee5                	li	t4,25
20402cde:	02d778b3          	remu	a7,a4,a3
20402ce2:	fd078713          	addi	a4,a5,-48
20402ce6:	04ef6463          	bltu	t5,a4,20402d2e <_strtoul_l.isra.0+0xd0>
20402cea:	87ba                	mv	a5,a4
20402cec:	06d7d163          	bge	a5,a3,20402d4e <_strtoul_l.isra.0+0xf0>
20402cf0:	04084d63          	bltz	a6,20402d4a <_strtoul_l.isra.0+0xec>
20402cf4:	587d                	li	a6,-1
20402cf6:	00ae6a63          	bltu	t3,a0,20402d0a <_strtoul_l.isra.0+0xac>
20402cfa:	00ae1463          	bne	t3,a0,20402d02 <_strtoul_l.isra.0+0xa4>
20402cfe:	00f8c663          	blt	a7,a5,20402d0a <_strtoul_l.isra.0+0xac>
20402d02:	4805                	li	a6,1
20402d04:	02a68533          	mul	a0,a3,a0
20402d08:	953e                	add	a0,a0,a5
20402d0a:	0485                	addi	s1,s1,1
20402d0c:	fff4c783          	lbu	a5,-1(s1)
20402d10:	bfc9                	j	20402ce2 <_strtoul_l.isra.0+0x84>
20402d12:	8926                	mv	s2,s1
20402d14:	bfa9                	j	20402c6e <_strtoul_l.isra.0+0x10>
20402d16:	02b00793          	li	a5,43
20402d1a:	00f40563          	beq	s0,a5,20402d24 <_strtoul_l.isra.0+0xc6>
20402d1e:	87a2                	mv	a5,s0
20402d20:	4301                	li	t1,0
20402d22:	b759                	j	20402ca8 <_strtoul_l.isra.0+0x4a>
20402d24:	0004c783          	lbu	a5,0(s1)
20402d28:	00290493          	addi	s1,s2,2
20402d2c:	bfd5                	j	20402d20 <_strtoul_l.isra.0+0xc2>
20402d2e:	fbf78713          	addi	a4,a5,-65
20402d32:	00eee563          	bltu	t4,a4,20402d3c <_strtoul_l.isra.0+0xde>
20402d36:	fc978793          	addi	a5,a5,-55
20402d3a:	bf4d                	j	20402cec <_strtoul_l.isra.0+0x8e>
20402d3c:	f9f78713          	addi	a4,a5,-97
20402d40:	00eee763          	bltu	t4,a4,20402d4e <_strtoul_l.isra.0+0xf0>
20402d44:	fa978793          	addi	a5,a5,-87
20402d48:	b755                	j	20402cec <_strtoul_l.isra.0+0x8e>
20402d4a:	587d                	li	a6,-1
20402d4c:	bf7d                	j	20402d0a <_strtoul_l.isra.0+0xac>
20402d4e:	00085f63          	bgez	a6,20402d6c <_strtoul_l.isra.0+0x10e>
20402d52:	02200793          	li	a5,34
20402d56:	00f9a023          	sw	a5,0(s3)
20402d5a:	557d                	li	a0,-1
20402d5c:	ee19                	bnez	a2,20402d7a <_strtoul_l.isra.0+0x11c>
20402d5e:	50b2                	lw	ra,44(sp)
20402d60:	5422                	lw	s0,40(sp)
20402d62:	5492                	lw	s1,36(sp)
20402d64:	5902                	lw	s2,32(sp)
20402d66:	49f2                	lw	s3,28(sp)
20402d68:	6145                	addi	sp,sp,48
20402d6a:	8082                	ret
20402d6c:	00030463          	beqz	t1,20402d74 <_strtoul_l.isra.0+0x116>
20402d70:	40a00533          	neg	a0,a0
20402d74:	d66d                	beqz	a2,20402d5e <_strtoul_l.isra.0+0x100>
20402d76:	00080463          	beqz	a6,20402d7e <_strtoul_l.isra.0+0x120>
20402d7a:	fff48593          	addi	a1,s1,-1
20402d7e:	c20c                	sw	a1,0(a2)
20402d80:	bff9                	j	20402d5e <_strtoul_l.isra.0+0x100>
20402d82:	03000793          	li	a5,48
20402d86:	f6a9                	bnez	a3,20402cd0 <_strtoul_l.isra.0+0x72>
20402d88:	46a1                	li	a3,8
20402d8a:	b799                	j	20402cd0 <_strtoul_l.isra.0+0x72>
20402d8c:	03000713          	li	a4,48
20402d90:	f2e784e3          	beq	a5,a4,20402cb8 <_strtoul_l.isra.0+0x5a>
20402d94:	46a9                	li	a3,10
20402d96:	bf2d                	j	20402cd0 <_strtoul_l.isra.0+0x72>

20402d98 <_strtoul_r>:
20402d98:	5fbfe797          	auipc	a5,0x5fbfe
20402d9c:	bf078793          	addi	a5,a5,-1040 # 80000988 <_impure_ptr>
20402da0:	439c                	lw	a5,0(a5)
20402da2:	5398                	lw	a4,32(a5)
20402da4:	e709                	bnez	a4,20402dae <_strtoul_r+0x16>
20402da6:	5fbfd717          	auipc	a4,0x5fbfd
20402daa:	2ba70713          	addi	a4,a4,698 # 80000060 <__global_locale>
20402dae:	bd45                	j	20402c5e <_strtoul_l.isra.0>

20402db0 <__ascii_wctomb>:
20402db0:	cd91                	beqz	a1,20402dcc <__ascii_wctomb+0x1c>
20402db2:	0ff00793          	li	a5,255
20402db6:	00c7f763          	bgeu	a5,a2,20402dc4 <__ascii_wctomb+0x14>
20402dba:	08a00793          	li	a5,138
20402dbe:	c11c                	sw	a5,0(a0)
20402dc0:	557d                	li	a0,-1
20402dc2:	8082                	ret
20402dc4:	00c58023          	sb	a2,0(a1)
20402dc8:	4505                	li	a0,1
20402dca:	8082                	ret
20402dcc:	4501                	li	a0,0
20402dce:	8082                	ret

20402dd0 <_fstat_r>:
20402dd0:	1141                	addi	sp,sp,-16
20402dd2:	c422                	sw	s0,8(sp)
20402dd4:	842a                	mv	s0,a0
20402dd6:	852e                	mv	a0,a1
20402dd8:	85b2                	mv	a1,a2
20402dda:	5fc00797          	auipc	a5,0x5fc00
20402dde:	4607a123          	sw	zero,1122(a5) # 8000323c <errno>
20402de2:	c606                	sw	ra,12(sp)
20402de4:	2591                	jal	20403428 <_fstat>
20402de6:	57fd                	li	a5,-1
20402de8:	00f51963          	bne	a0,a5,20402dfa <_fstat_r+0x2a>
20402dec:	5fc00797          	auipc	a5,0x5fc00
20402df0:	45078793          	addi	a5,a5,1104 # 8000323c <errno>
20402df4:	439c                	lw	a5,0(a5)
20402df6:	c391                	beqz	a5,20402dfa <_fstat_r+0x2a>
20402df8:	c01c                	sw	a5,0(s0)
20402dfa:	40b2                	lw	ra,12(sp)
20402dfc:	4422                	lw	s0,8(sp)
20402dfe:	0141                	addi	sp,sp,16
20402e00:	8082                	ret

20402e02 <_isatty_r>:
20402e02:	1141                	addi	sp,sp,-16
20402e04:	c422                	sw	s0,8(sp)
20402e06:	842a                	mv	s0,a0
20402e08:	852e                	mv	a0,a1
20402e0a:	5fc00797          	auipc	a5,0x5fc00
20402e0e:	4207a923          	sw	zero,1074(a5) # 8000323c <errno>
20402e12:	c606                	sw	ra,12(sp)
20402e14:	257d                	jal	204034c2 <_isatty>
20402e16:	57fd                	li	a5,-1
20402e18:	00f51963          	bne	a0,a5,20402e2a <_isatty_r+0x28>
20402e1c:	5fc00797          	auipc	a5,0x5fc00
20402e20:	42078793          	addi	a5,a5,1056 # 8000323c <errno>
20402e24:	439c                	lw	a5,0(a5)
20402e26:	c391                	beqz	a5,20402e2a <_isatty_r+0x28>
20402e28:	c01c                	sw	a5,0(s0)
20402e2a:	40b2                	lw	ra,12(sp)
20402e2c:	4422                	lw	s0,8(sp)
20402e2e:	0141                	addi	sp,sp,16
20402e30:	8082                	ret

20402e32 <_malloc_usable_size_r>:
20402e32:	ffc5a783          	lw	a5,-4(a1)
20402e36:	ffc78513          	addi	a0,a5,-4
20402e3a:	0007d563          	bgez	a5,20402e44 <_malloc_usable_size_r+0x12>
20402e3e:	95aa                	add	a1,a1,a0
20402e40:	419c                	lw	a5,0(a1)
20402e42:	953e                	add	a0,a0,a5
20402e44:	8082                	ret

20402e46 <__divsf3>:
20402e46:	1101                	addi	sp,sp,-32
20402e48:	ca26                	sw	s1,20(sp)
20402e4a:	01755493          	srli	s1,a0,0x17
20402e4e:	c84a                	sw	s2,16(sp)
20402e50:	c64e                	sw	s3,12(sp)
20402e52:	c452                	sw	s4,8(sp)
20402e54:	00951993          	slli	s3,a0,0x9
20402e58:	ce06                	sw	ra,28(sp)
20402e5a:	cc22                	sw	s0,24(sp)
20402e5c:	c256                	sw	s5,4(sp)
20402e5e:	0ff4f493          	andi	s1,s1,255
20402e62:	8a2e                	mv	s4,a1
20402e64:	0099d993          	srli	s3,s3,0x9
20402e68:	01f55913          	srli	s2,a0,0x1f
20402e6c:	c4b5                	beqz	s1,20402ed8 <__divsf3+0x92>
20402e6e:	0ff00793          	li	a5,255
20402e72:	06f48f63          	beq	s1,a5,20402ef0 <__divsf3+0xaa>
20402e76:	098e                	slli	s3,s3,0x3
20402e78:	040007b7          	lui	a5,0x4000
20402e7c:	00f9e9b3          	or	s3,s3,a5
20402e80:	f8148493          	addi	s1,s1,-127
20402e84:	4a81                	li	s5,0
20402e86:	017a5513          	srli	a0,s4,0x17
20402e8a:	009a1413          	slli	s0,s4,0x9
20402e8e:	0ff57513          	andi	a0,a0,255
20402e92:	8025                	srli	s0,s0,0x9
20402e94:	01fa5a13          	srli	s4,s4,0x1f
20402e98:	c535                	beqz	a0,20402f04 <__divsf3+0xbe>
20402e9a:	0ff00793          	li	a5,255
20402e9e:	06f50f63          	beq	a0,a5,20402f1c <__divsf3+0xd6>
20402ea2:	040e                	slli	s0,s0,0x3
20402ea4:	040007b7          	lui	a5,0x4000
20402ea8:	8c5d                	or	s0,s0,a5
20402eaa:	f8150513          	addi	a0,a0,-127
20402eae:	4781                	li	a5,0
20402eb0:	002a9693          	slli	a3,s5,0x2
20402eb4:	8edd                	or	a3,a3,a5
20402eb6:	16fd                	addi	a3,a3,-1
20402eb8:	4739                	li	a4,14
20402eba:	01494633          	xor	a2,s2,s4
20402ebe:	40a48533          	sub	a0,s1,a0
20402ec2:	06d76663          	bltu	a4,a3,20402f2e <__divsf3+0xe8>
20402ec6:	00003597          	auipc	a1,0x3
20402eca:	13258593          	addi	a1,a1,306 # 20405ff8 <_ctype_+0x104>
20402ece:	068a                	slli	a3,a3,0x2
20402ed0:	96ae                	add	a3,a3,a1
20402ed2:	4298                	lw	a4,0(a3)
20402ed4:	972e                	add	a4,a4,a1
20402ed6:	8702                	jr	a4
20402ed8:	02098363          	beqz	s3,20402efe <__divsf3+0xb8>
20402edc:	854e                	mv	a0,s3
20402ede:	21e5                	jal	204033c6 <__clzsi2>
20402ee0:	ffb50793          	addi	a5,a0,-5
20402ee4:	f8a00493          	li	s1,-118
20402ee8:	00f999b3          	sll	s3,s3,a5
20402eec:	8c89                	sub	s1,s1,a0
20402eee:	bf59                	j	20402e84 <__divsf3+0x3e>
20402ef0:	0ff00493          	li	s1,255
20402ef4:	4a89                	li	s5,2
20402ef6:	f80988e3          	beqz	s3,20402e86 <__divsf3+0x40>
20402efa:	4a8d                	li	s5,3
20402efc:	b769                	j	20402e86 <__divsf3+0x40>
20402efe:	4481                	li	s1,0
20402f00:	4a85                	li	s5,1
20402f02:	b751                	j	20402e86 <__divsf3+0x40>
20402f04:	c015                	beqz	s0,20402f28 <__divsf3+0xe2>
20402f06:	8522                	mv	a0,s0
20402f08:	297d                	jal	204033c6 <__clzsi2>
20402f0a:	ffb50793          	addi	a5,a0,-5
20402f0e:	00f41433          	sll	s0,s0,a5
20402f12:	f8a00793          	li	a5,-118
20402f16:	40a78533          	sub	a0,a5,a0
20402f1a:	bf51                	j	20402eae <__divsf3+0x68>
20402f1c:	0ff00513          	li	a0,255
20402f20:	4789                	li	a5,2
20402f22:	d459                	beqz	s0,20402eb0 <__divsf3+0x6a>
20402f24:	478d                	li	a5,3
20402f26:	b769                	j	20402eb0 <__divsf3+0x6a>
20402f28:	4501                	li	a0,0
20402f2a:	4785                	li	a5,1
20402f2c:	b751                	j	20402eb0 <__divsf3+0x6a>
20402f2e:	00541813          	slli	a6,s0,0x5
20402f32:	0a89fe63          	bgeu	s3,s0,20402fee <__divsf3+0x1a8>
20402f36:	157d                	addi	a0,a0,-1
20402f38:	4681                	li	a3,0
20402f3a:	01085413          	srli	s0,a6,0x10
20402f3e:	0289d333          	divu	t1,s3,s0
20402f42:	67c1                	lui	a5,0x10
20402f44:	17fd                	addi	a5,a5,-1
20402f46:	00f877b3          	and	a5,a6,a5
20402f4a:	82c1                	srli	a3,a3,0x10
20402f4c:	0289f733          	remu	a4,s3,s0
20402f50:	859a                	mv	a1,t1
20402f52:	026788b3          	mul	a7,a5,t1
20402f56:	0742                	slli	a4,a4,0x10
20402f58:	8f55                	or	a4,a4,a3
20402f5a:	01177c63          	bgeu	a4,a7,20402f72 <__divsf3+0x12c>
20402f5e:	9742                	add	a4,a4,a6
20402f60:	fff30593          	addi	a1,t1,-1
20402f64:	01076763          	bltu	a4,a6,20402f72 <__divsf3+0x12c>
20402f68:	01177563          	bgeu	a4,a7,20402f72 <__divsf3+0x12c>
20402f6c:	ffe30593          	addi	a1,t1,-2
20402f70:	9742                	add	a4,a4,a6
20402f72:	41170733          	sub	a4,a4,a7
20402f76:	028758b3          	divu	a7,a4,s0
20402f7a:	02877733          	remu	a4,a4,s0
20402f7e:	031786b3          	mul	a3,a5,a7
20402f82:	01071793          	slli	a5,a4,0x10
20402f86:	8746                	mv	a4,a7
20402f88:	00d7fc63          	bgeu	a5,a3,20402fa0 <__divsf3+0x15a>
20402f8c:	97c2                	add	a5,a5,a6
20402f8e:	fff88713          	addi	a4,a7,-1 # 7fffffff <metal_segment_heap_target_end+0xffffbfff>
20402f92:	0107e763          	bltu	a5,a6,20402fa0 <__divsf3+0x15a>
20402f96:	00d7f563          	bgeu	a5,a3,20402fa0 <__divsf3+0x15a>
20402f9a:	ffe88713          	addi	a4,a7,-2
20402f9e:	97c2                	add	a5,a5,a6
20402fa0:	01059413          	slli	s0,a1,0x10
20402fa4:	8f95                	sub	a5,a5,a3
20402fa6:	8c59                	or	s0,s0,a4
20402fa8:	00f037b3          	snez	a5,a5
20402fac:	8c5d                	or	s0,s0,a5
20402fae:	07f50713          	addi	a4,a0,127
20402fb2:	08e05a63          	blez	a4,20403046 <__divsf3+0x200>
20402fb6:	00747793          	andi	a5,s0,7
20402fba:	c799                	beqz	a5,20402fc8 <__divsf3+0x182>
20402fbc:	00f47793          	andi	a5,s0,15
20402fc0:	4691                	li	a3,4
20402fc2:	00d78363          	beq	a5,a3,20402fc8 <__divsf3+0x182>
20402fc6:	0411                	addi	s0,s0,4
20402fc8:	00441793          	slli	a5,s0,0x4
20402fcc:	0007d863          	bgez	a5,20402fdc <__divsf3+0x196>
20402fd0:	f80007b7          	lui	a5,0xf8000
20402fd4:	17fd                	addi	a5,a5,-1
20402fd6:	8c7d                	and	s0,s0,a5
20402fd8:	08050713          	addi	a4,a0,128
20402fdc:	0fe00793          	li	a5,254
20402fe0:	800d                	srli	s0,s0,0x3
20402fe2:	02e7d963          	bge	a5,a4,20403014 <__divsf3+0x1ce>
20402fe6:	4401                	li	s0,0
20402fe8:	0ff00713          	li	a4,255
20402fec:	a025                	j	20403014 <__divsf3+0x1ce>
20402fee:	01f99693          	slli	a3,s3,0x1f
20402ff2:	0019d993          	srli	s3,s3,0x1
20402ff6:	b791                	j	20402f3a <__divsf3+0xf4>
20402ff8:	864a                	mv	a2,s2
20402ffa:	844e                	mv	s0,s3
20402ffc:	87d6                	mv	a5,s5
20402ffe:	4709                	li	a4,2
20403000:	fee783e3          	beq	a5,a4,20402fe6 <__divsf3+0x1a0>
20403004:	470d                	li	a4,3
20403006:	06e78f63          	beq	a5,a4,20403084 <__divsf3+0x23e>
2040300a:	4705                	li	a4,1
2040300c:	fae791e3          	bne	a5,a4,20402fae <__divsf3+0x168>
20403010:	4401                	li	s0,0
20403012:	4701                	li	a4,0
20403014:	0426                	slli	s0,s0,0x9
20403016:	0ff77713          	andi	a4,a4,255
2040301a:	075e                	slli	a4,a4,0x17
2040301c:	8025                	srli	s0,s0,0x9
2040301e:	8c59                	or	s0,s0,a4
20403020:	01f61513          	slli	a0,a2,0x1f
20403024:	8d41                	or	a0,a0,s0
20403026:	40f2                	lw	ra,28(sp)
20403028:	4462                	lw	s0,24(sp)
2040302a:	44d2                	lw	s1,20(sp)
2040302c:	4942                	lw	s2,16(sp)
2040302e:	49b2                	lw	s3,12(sp)
20403030:	4a22                	lw	s4,8(sp)
20403032:	4a92                	lw	s5,4(sp)
20403034:	6105                	addi	sp,sp,32
20403036:	8082                	ret
20403038:	8652                	mv	a2,s4
2040303a:	b7d1                	j	20402ffe <__divsf3+0x1b8>
2040303c:	00400437          	lui	s0,0x400
20403040:	4601                	li	a2,0
20403042:	478d                	li	a5,3
20403044:	bf6d                	j	20402ffe <__divsf3+0x1b8>
20403046:	4785                	li	a5,1
20403048:	8f99                	sub	a5,a5,a4
2040304a:	476d                	li	a4,27
2040304c:	fcf742e3          	blt	a4,a5,20403010 <__divsf3+0x1ca>
20403050:	09e50513          	addi	a0,a0,158
20403054:	00f457b3          	srl	a5,s0,a5
20403058:	00a41433          	sll	s0,s0,a0
2040305c:	00803433          	snez	s0,s0
20403060:	8c5d                	or	s0,s0,a5
20403062:	00747793          	andi	a5,s0,7
20403066:	c799                	beqz	a5,20403074 <__divsf3+0x22e>
20403068:	00f47793          	andi	a5,s0,15
2040306c:	4711                	li	a4,4
2040306e:	00e78363          	beq	a5,a4,20403074 <__divsf3+0x22e>
20403072:	0411                	addi	s0,s0,4
20403074:	00541793          	slli	a5,s0,0x5
20403078:	800d                	srli	s0,s0,0x3
2040307a:	f807dce3          	bgez	a5,20403012 <__divsf3+0x1cc>
2040307e:	4401                	li	s0,0
20403080:	4705                	li	a4,1
20403082:	bf49                	j	20403014 <__divsf3+0x1ce>
20403084:	00400437          	lui	s0,0x400
20403088:	0ff00713          	li	a4,255
2040308c:	4601                	li	a2,0
2040308e:	b759                	j	20403014 <__divsf3+0x1ce>

20403090 <__mulsf3>:
20403090:	1101                	addi	sp,sp,-32
20403092:	c84a                	sw	s2,16(sp)
20403094:	01755913          	srli	s2,a0,0x17
20403098:	ca26                	sw	s1,20(sp)
2040309a:	c64e                	sw	s3,12(sp)
2040309c:	c256                	sw	s5,4(sp)
2040309e:	00951493          	slli	s1,a0,0x9
204030a2:	ce06                	sw	ra,28(sp)
204030a4:	cc22                	sw	s0,24(sp)
204030a6:	c452                	sw	s4,8(sp)
204030a8:	0ff97913          	andi	s2,s2,255
204030ac:	8aae                	mv	s5,a1
204030ae:	80a5                	srli	s1,s1,0x9
204030b0:	01f55993          	srli	s3,a0,0x1f
204030b4:	06090763          	beqz	s2,20403122 <__mulsf3+0x92>
204030b8:	0ff00793          	li	a5,255
204030bc:	06f90f63          	beq	s2,a5,2040313a <__mulsf3+0xaa>
204030c0:	048e                	slli	s1,s1,0x3
204030c2:	040007b7          	lui	a5,0x4000
204030c6:	8cdd                	or	s1,s1,a5
204030c8:	f8190913          	addi	s2,s2,-127
204030cc:	4a01                	li	s4,0
204030ce:	017ad513          	srli	a0,s5,0x17
204030d2:	009a9413          	slli	s0,s5,0x9
204030d6:	0ff57513          	andi	a0,a0,255
204030da:	8025                	srli	s0,s0,0x9
204030dc:	01fada93          	srli	s5,s5,0x1f
204030e0:	c535                	beqz	a0,2040314c <__mulsf3+0xbc>
204030e2:	0ff00793          	li	a5,255
204030e6:	06f50f63          	beq	a0,a5,20403164 <__mulsf3+0xd4>
204030ea:	040e                	slli	s0,s0,0x3
204030ec:	040007b7          	lui	a5,0x4000
204030f0:	8c5d                	or	s0,s0,a5
204030f2:	f8150513          	addi	a0,a0,-127
204030f6:	4781                	li	a5,0
204030f8:	002a1713          	slli	a4,s4,0x2
204030fc:	8f5d                	or	a4,a4,a5
204030fe:	954a                	add	a0,a0,s2
20403100:	177d                	addi	a4,a4,-1
20403102:	45b9                	li	a1,14
20403104:	0159c6b3          	xor	a3,s3,s5
20403108:	00150613          	addi	a2,a0,1
2040310c:	06e5e563          	bltu	a1,a4,20403176 <__mulsf3+0xe6>
20403110:	00003597          	auipc	a1,0x3
20403114:	f2458593          	addi	a1,a1,-220 # 20406034 <_ctype_+0x140>
20403118:	070a                	slli	a4,a4,0x2
2040311a:	972e                	add	a4,a4,a1
2040311c:	4318                	lw	a4,0(a4)
2040311e:	972e                	add	a4,a4,a1
20403120:	8702                	jr	a4
20403122:	c095                	beqz	s1,20403146 <__mulsf3+0xb6>
20403124:	8526                	mv	a0,s1
20403126:	2445                	jal	204033c6 <__clzsi2>
20403128:	ffb50793          	addi	a5,a0,-5
2040312c:	f8a00913          	li	s2,-118
20403130:	00f494b3          	sll	s1,s1,a5
20403134:	40a90933          	sub	s2,s2,a0
20403138:	bf51                	j	204030cc <__mulsf3+0x3c>
2040313a:	0ff00913          	li	s2,255
2040313e:	4a09                	li	s4,2
20403140:	d4d9                	beqz	s1,204030ce <__mulsf3+0x3e>
20403142:	4a0d                	li	s4,3
20403144:	b769                	j	204030ce <__mulsf3+0x3e>
20403146:	4901                	li	s2,0
20403148:	4a05                	li	s4,1
2040314a:	b751                	j	204030ce <__mulsf3+0x3e>
2040314c:	c015                	beqz	s0,20403170 <__mulsf3+0xe0>
2040314e:	8522                	mv	a0,s0
20403150:	2c9d                	jal	204033c6 <__clzsi2>
20403152:	ffb50793          	addi	a5,a0,-5
20403156:	00f41433          	sll	s0,s0,a5
2040315a:	f8a00793          	li	a5,-118
2040315e:	40a78533          	sub	a0,a5,a0
20403162:	bf51                	j	204030f6 <__mulsf3+0x66>
20403164:	0ff00513          	li	a0,255
20403168:	4789                	li	a5,2
2040316a:	d459                	beqz	s0,204030f8 <__mulsf3+0x68>
2040316c:	478d                	li	a5,3
2040316e:	b769                	j	204030f8 <__mulsf3+0x68>
20403170:	4501                	li	a0,0
20403172:	4785                	li	a5,1
20403174:	b751                	j	204030f8 <__mulsf3+0x68>
20403176:	67c1                	lui	a5,0x10
20403178:	fff78313          	addi	t1,a5,-1 # ffff <__stack_size+0xf7ff>
2040317c:	0104d713          	srli	a4,s1,0x10
20403180:	01045593          	srli	a1,s0,0x10
20403184:	0064f4b3          	and	s1,s1,t1
20403188:	00647433          	and	s0,s0,t1
2040318c:	028488b3          	mul	a7,s1,s0
20403190:	02870833          	mul	a6,a4,s0
20403194:	02b70433          	mul	s0,a4,a1
20403198:	029585b3          	mul	a1,a1,s1
2040319c:	0108d493          	srli	s1,a7,0x10
204031a0:	95c2                	add	a1,a1,a6
204031a2:	94ae                	add	s1,s1,a1
204031a4:	0104f363          	bgeu	s1,a6,204031aa <__mulsf3+0x11a>
204031a8:	943e                	add	s0,s0,a5
204031aa:	0064f7b3          	and	a5,s1,t1
204031ae:	07c2                	slli	a5,a5,0x10
204031b0:	0068f8b3          	and	a7,a7,t1
204031b4:	97c6                	add	a5,a5,a7
204031b6:	00679713          	slli	a4,a5,0x6
204031ba:	80c1                	srli	s1,s1,0x10
204031bc:	00e03733          	snez	a4,a4
204031c0:	83e9                	srli	a5,a5,0x1a
204031c2:	9426                	add	s0,s0,s1
204031c4:	8fd9                	or	a5,a5,a4
204031c6:	041a                	slli	s0,s0,0x6
204031c8:	8c5d                	or	s0,s0,a5
204031ca:	00441793          	slli	a5,s0,0x4
204031ce:	0607d763          	bgez	a5,2040323c <__mulsf3+0x1ac>
204031d2:	00145793          	srli	a5,s0,0x1
204031d6:	8805                	andi	s0,s0,1
204031d8:	8c5d                	or	s0,s0,a5
204031da:	07f60713          	addi	a4,a2,127
204031de:	06e05163          	blez	a4,20403240 <__mulsf3+0x1b0>
204031e2:	00747793          	andi	a5,s0,7
204031e6:	c799                	beqz	a5,204031f4 <__mulsf3+0x164>
204031e8:	00f47793          	andi	a5,s0,15
204031ec:	4591                	li	a1,4
204031ee:	00b78363          	beq	a5,a1,204031f4 <__mulsf3+0x164>
204031f2:	0411                	addi	s0,s0,4
204031f4:	00441793          	slli	a5,s0,0x4
204031f8:	0007d863          	bgez	a5,20403208 <__mulsf3+0x178>
204031fc:	f80007b7          	lui	a5,0xf8000
20403200:	17fd                	addi	a5,a5,-1
20403202:	8c7d                	and	s0,s0,a5
20403204:	08060713          	addi	a4,a2,128
20403208:	0fe00793          	li	a5,254
2040320c:	800d                	srli	s0,s0,0x3
2040320e:	06e7dd63          	bge	a5,a4,20403288 <__mulsf3+0x1f8>
20403212:	4401                	li	s0,0
20403214:	0ff00713          	li	a4,255
20403218:	a885                	j	20403288 <__mulsf3+0x1f8>
2040321a:	86ce                	mv	a3,s3
2040321c:	8426                	mv	s0,s1
2040321e:	87d2                	mv	a5,s4
20403220:	4709                	li	a4,2
20403222:	fee788e3          	beq	a5,a4,20403212 <__mulsf3+0x182>
20403226:	470d                	li	a4,3
20403228:	04e78b63          	beq	a5,a4,2040327e <__mulsf3+0x1ee>
2040322c:	4705                	li	a4,1
2040322e:	fae796e3          	bne	a5,a4,204031da <__mulsf3+0x14a>
20403232:	4401                	li	s0,0
20403234:	4701                	li	a4,0
20403236:	a889                	j	20403288 <__mulsf3+0x1f8>
20403238:	86d6                	mv	a3,s5
2040323a:	b7dd                	j	20403220 <__mulsf3+0x190>
2040323c:	862a                	mv	a2,a0
2040323e:	bf71                	j	204031da <__mulsf3+0x14a>
20403240:	4785                	li	a5,1
20403242:	8f99                	sub	a5,a5,a4
20403244:	476d                	li	a4,27
20403246:	fef746e3          	blt	a4,a5,20403232 <__mulsf3+0x1a2>
2040324a:	09e60613          	addi	a2,a2,158
2040324e:	00f457b3          	srl	a5,s0,a5
20403252:	00c41433          	sll	s0,s0,a2
20403256:	00803433          	snez	s0,s0
2040325a:	8c5d                	or	s0,s0,a5
2040325c:	00747793          	andi	a5,s0,7
20403260:	c799                	beqz	a5,2040326e <__mulsf3+0x1de>
20403262:	00f47793          	andi	a5,s0,15
20403266:	4711                	li	a4,4
20403268:	00e78363          	beq	a5,a4,2040326e <__mulsf3+0x1de>
2040326c:	0411                	addi	s0,s0,4
2040326e:	00541793          	slli	a5,s0,0x5
20403272:	800d                	srli	s0,s0,0x3
20403274:	fc07d0e3          	bgez	a5,20403234 <__mulsf3+0x1a4>
20403278:	4401                	li	s0,0
2040327a:	4705                	li	a4,1
2040327c:	a031                	j	20403288 <__mulsf3+0x1f8>
2040327e:	00400437          	lui	s0,0x400
20403282:	0ff00713          	li	a4,255
20403286:	4681                	li	a3,0
20403288:	0426                	slli	s0,s0,0x9
2040328a:	0ff77713          	andi	a4,a4,255
2040328e:	075e                	slli	a4,a4,0x17
20403290:	8025                	srli	s0,s0,0x9
20403292:	8c59                	or	s0,s0,a4
20403294:	01f69513          	slli	a0,a3,0x1f
20403298:	8d41                	or	a0,a0,s0
2040329a:	40f2                	lw	ra,28(sp)
2040329c:	4462                	lw	s0,24(sp)
2040329e:	44d2                	lw	s1,20(sp)
204032a0:	4942                	lw	s2,16(sp)
204032a2:	49b2                	lw	s3,12(sp)
204032a4:	4a22                	lw	s4,8(sp)
204032a6:	4a92                	lw	s5,4(sp)
204032a8:	6105                	addi	sp,sp,32
204032aa:	8082                	ret

204032ac <__fixsfsi>:
204032ac:	00800637          	lui	a2,0x800
204032b0:	01755713          	srli	a4,a0,0x17
204032b4:	fff60793          	addi	a5,a2,-1 # 7fffff <__stack_size+0x7ff7ff>
204032b8:	0ff77713          	andi	a4,a4,255
204032bc:	07e00593          	li	a1,126
204032c0:	8fe9                	and	a5,a5,a0
204032c2:	01f55693          	srli	a3,a0,0x1f
204032c6:	04e5f163          	bgeu	a1,a4,20403308 <__fixsfsi+0x5c>
204032ca:	09d00593          	li	a1,157
204032ce:	00e5f863          	bgeu	a1,a4,204032de <__fixsfsi+0x32>
204032d2:	80000537          	lui	a0,0x80000
204032d6:	fff54513          	not	a0,a0
204032da:	9536                	add	a0,a0,a3
204032dc:	8082                	ret
204032de:	00c7e533          	or	a0,a5,a2
204032e2:	09500793          	li	a5,149
204032e6:	00e7da63          	bge	a5,a4,204032fa <__fixsfsi+0x4e>
204032ea:	f6a70713          	addi	a4,a4,-150
204032ee:	00e51533          	sll	a0,a0,a4
204032f2:	ce81                	beqz	a3,2040330a <__fixsfsi+0x5e>
204032f4:	40a00533          	neg	a0,a0
204032f8:	8082                	ret
204032fa:	09600793          	li	a5,150
204032fe:	40e78733          	sub	a4,a5,a4
20403302:	00e55533          	srl	a0,a0,a4
20403306:	b7f5                	j	204032f2 <__fixsfsi+0x46>
20403308:	4501                	li	a0,0
2040330a:	8082                	ret

2040330c <__floatsisf>:
2040330c:	1141                	addi	sp,sp,-16
2040330e:	c606                	sw	ra,12(sp)
20403310:	c422                	sw	s0,8(sp)
20403312:	c226                	sw	s1,4(sp)
20403314:	c54d                	beqz	a0,204033be <__floatsisf+0xb2>
20403316:	41f55793          	srai	a5,a0,0x1f
2040331a:	00a7c433          	xor	s0,a5,a0
2040331e:	8c1d                	sub	s0,s0,a5
20403320:	01f55493          	srli	s1,a0,0x1f
20403324:	8522                	mv	a0,s0
20403326:	2045                	jal	204033c6 <__clzsi2>
20403328:	09e00793          	li	a5,158
2040332c:	8f89                	sub	a5,a5,a0
2040332e:	09600713          	li	a4,150
20403332:	02f74663          	blt	a4,a5,2040335e <__floatsisf+0x52>
20403336:	4721                	li	a4,8
20403338:	00a75563          	bge	a4,a0,20403342 <__floatsisf+0x36>
2040333c:	1561                	addi	a0,a0,-8
2040333e:	00a41433          	sll	s0,s0,a0
20403342:	0426                	slli	s0,s0,0x9
20403344:	0ff7f793          	andi	a5,a5,255
20403348:	07de                	slli	a5,a5,0x17
2040334a:	8025                	srli	s0,s0,0x9
2040334c:	01f49513          	slli	a0,s1,0x1f
20403350:	8c5d                	or	s0,s0,a5
20403352:	8d41                	or	a0,a0,s0
20403354:	40b2                	lw	ra,12(sp)
20403356:	4422                	lw	s0,8(sp)
20403358:	4492                	lw	s1,4(sp)
2040335a:	0141                	addi	sp,sp,16
2040335c:	8082                	ret
2040335e:	09900713          	li	a4,153
20403362:	00f75d63          	bge	a4,a5,2040337c <__floatsisf+0x70>
20403366:	4715                	li	a4,5
20403368:	8f09                	sub	a4,a4,a0
2040336a:	01b50693          	addi	a3,a0,27 # 8000001b <metal_segment_heap_target_end+0xffffc01b>
2040336e:	00e45733          	srl	a4,s0,a4
20403372:	00d41433          	sll	s0,s0,a3
20403376:	00803433          	snez	s0,s0
2040337a:	8c59                	or	s0,s0,a4
2040337c:	4715                	li	a4,5
2040337e:	00a75663          	bge	a4,a0,2040338a <__floatsisf+0x7e>
20403382:	ffb50713          	addi	a4,a0,-5
20403386:	00e41433          	sll	s0,s0,a4
2040338a:	fc000737          	lui	a4,0xfc000
2040338e:	177d                	addi	a4,a4,-1
20403390:	00747693          	andi	a3,s0,7
20403394:	8f61                	and	a4,a4,s0
20403396:	c691                	beqz	a3,204033a2 <__floatsisf+0x96>
20403398:	883d                	andi	s0,s0,15
2040339a:	4691                	li	a3,4
2040339c:	00d40363          	beq	s0,a3,204033a2 <__floatsisf+0x96>
204033a0:	0711                	addi	a4,a4,4
204033a2:	00571693          	slli	a3,a4,0x5
204033a6:	0006d963          	bgez	a3,204033b8 <__floatsisf+0xac>
204033aa:	fc0007b7          	lui	a5,0xfc000
204033ae:	17fd                	addi	a5,a5,-1
204033b0:	8f7d                	and	a4,a4,a5
204033b2:	09f00793          	li	a5,159
204033b6:	8f89                	sub	a5,a5,a0
204033b8:	00375413          	srli	s0,a4,0x3
204033bc:	b759                	j	20403342 <__floatsisf+0x36>
204033be:	4401                	li	s0,0
204033c0:	4781                	li	a5,0
204033c2:	4481                	li	s1,0
204033c4:	bfbd                	j	20403342 <__floatsisf+0x36>

204033c6 <__clzsi2>:
204033c6:	67c1                	lui	a5,0x10
204033c8:	02f57663          	bgeu	a0,a5,204033f4 <__clzsi2+0x2e>
204033cc:	0ff00793          	li	a5,255
204033d0:	00a7b7b3          	sltu	a5,a5,a0
204033d4:	078e                	slli	a5,a5,0x3
204033d6:	02000713          	li	a4,32
204033da:	8f1d                	sub	a4,a4,a5
204033dc:	00f557b3          	srl	a5,a0,a5
204033e0:	00003517          	auipc	a0,0x3
204033e4:	c9050513          	addi	a0,a0,-880 # 20406070 <__clz_tab>
204033e8:	97aa                	add	a5,a5,a0
204033ea:	0007c503          	lbu	a0,0(a5) # 10000 <__stack_size+0xf800>
204033ee:	40a70533          	sub	a0,a4,a0
204033f2:	8082                	ret
204033f4:	01000737          	lui	a4,0x1000
204033f8:	47c1                	li	a5,16
204033fa:	fce56ee3          	bltu	a0,a4,204033d6 <__clzsi2+0x10>
204033fe:	47e1                	li	a5,24
20403400:	bfd9                	j	204033d6 <__clzsi2+0x10>
	...

20403404 <early_trap_vector>:
20403404:	a001                	j	20403404 <early_trap_vector>

20403406 <_close>:
20403406:	1101                	addi	sp,sp,-32
20403408:	ce06                	sw	ra,28(sp)
2040340a:	cc22                	sw	s0,24(sp)
2040340c:	1000                	addi	s0,sp,32
2040340e:	fea42623          	sw	a0,-20(s0) # 3fffec <__stack_size+0x3ff7ec>
20403412:	2c21                	jal	2040362a <__errno>
20403414:	872a                	mv	a4,a0
20403416:	05800793          	li	a5,88
2040341a:	c31c                	sw	a5,0(a4)
2040341c:	57fd                	li	a5,-1
2040341e:	853e                	mv	a0,a5
20403420:	40f2                	lw	ra,28(sp)
20403422:	4462                	lw	s0,24(sp)
20403424:	6105                	addi	sp,sp,32
20403426:	8082                	ret

20403428 <_fstat>:
20403428:	1101                	addi	sp,sp,-32
2040342a:	ce06                	sw	ra,28(sp)
2040342c:	cc22                	sw	s0,24(sp)
2040342e:	1000                	addi	s0,sp,32
20403430:	fea42623          	sw	a0,-20(s0)
20403434:	feb42423          	sw	a1,-24(s0)
20403438:	2acd                	jal	2040362a <__errno>
2040343a:	872a                	mv	a4,a0
2040343c:	fa800793          	li	a5,-88
20403440:	c31c                	sw	a5,0(a4)
20403442:	57fd                	li	a5,-1
20403444:	853e                	mv	a0,a5
20403446:	40f2                	lw	ra,28(sp)
20403448:	4462                	lw	s0,24(sp)
2040344a:	6105                	addi	sp,sp,32
2040344c:	8082                	ret

2040344e <_gettimeofday>:
2040344e:	7139                	addi	sp,sp,-64
20403450:	de06                	sw	ra,60(sp)
20403452:	dc22                	sw	s0,56(sp)
20403454:	0080                	addi	s0,sp,64
20403456:	fca42623          	sw	a0,-52(s0)
2040345a:	fcb42423          	sw	a1,-56(s0)
2040345e:	fe040793          	addi	a5,s0,-32
20403462:	85be                	mv	a1,a5
20403464:	4501                	li	a0,0
20403466:	2f99                	jal	20403bbc <metal_timer_get_cyclecount>
20403468:	fea42623          	sw	a0,-20(s0)
2040346c:	fec42783          	lw	a5,-20(s0)
20403470:	c399                	beqz	a5,20403476 <_gettimeofday+0x28>
20403472:	57fd                	li	a5,-1
20403474:	a091                	j	204034b8 <_gettimeofday+0x6a>
20403476:	fd840793          	addi	a5,s0,-40
2040347a:	85be                	mv	a1,a5
2040347c:	4501                	li	a0,0
2040347e:	2759                	jal	20403c04 <metal_timer_get_timebase_frequency>
20403480:	fea42623          	sw	a0,-20(s0)
20403484:	fec42783          	lw	a5,-20(s0)
20403488:	c399                	beqz	a5,2040348e <_gettimeofday+0x40>
2040348a:	57fd                	li	a5,-1
2040348c:	a035                	j	204034b8 <_gettimeofday+0x6a>
2040348e:	fe042783          	lw	a5,-32(s0)
20403492:	fe442803          	lw	a6,-28(s0)
20403496:	fd842683          	lw	a3,-40(s0)
2040349a:	fdc42703          	lw	a4,-36(s0)
2040349e:	8636                	mv	a2,a3
204034a0:	86ba                	mv	a3,a4
204034a2:	853e                	mv	a0,a5
204034a4:	85c2                	mv	a1,a6
204034a6:	2e65                	jal	2040385e <__udivdi3>
204034a8:	87aa                	mv	a5,a0
204034aa:	882e                	mv	a6,a1
204034ac:	fcc42703          	lw	a4,-52(s0)
204034b0:	c31c                	sw	a5,0(a4)
204034b2:	01072223          	sw	a6,4(a4) # 1000004 <__stack_size+0xfff804>
204034b6:	4781                	li	a5,0
204034b8:	853e                	mv	a0,a5
204034ba:	50f2                	lw	ra,60(sp)
204034bc:	5462                	lw	s0,56(sp)
204034be:	6121                	addi	sp,sp,64
204034c0:	8082                	ret

204034c2 <_isatty>:
204034c2:	1101                	addi	sp,sp,-32
204034c4:	ce22                	sw	s0,28(sp)
204034c6:	1000                	addi	s0,sp,32
204034c8:	fea42623          	sw	a0,-20(s0)
204034cc:	fec42783          	lw	a5,-20(s0)
204034d0:	17fd                	addi	a5,a5,-1
204034d2:	0017b793          	seqz	a5,a5
204034d6:	0ff7f793          	andi	a5,a5,255
204034da:	853e                	mv	a0,a5
204034dc:	4472                	lw	s0,28(sp)
204034de:	6105                	addi	sp,sp,32
204034e0:	8082                	ret

204034e2 <_lseek>:
204034e2:	1101                	addi	sp,sp,-32
204034e4:	ce06                	sw	ra,28(sp)
204034e6:	cc22                	sw	s0,24(sp)
204034e8:	1000                	addi	s0,sp,32
204034ea:	fea42623          	sw	a0,-20(s0)
204034ee:	feb42423          	sw	a1,-24(s0)
204034f2:	fec42223          	sw	a2,-28(s0)
204034f6:	2a15                	jal	2040362a <__errno>
204034f8:	872a                	mv	a4,a0
204034fa:	05800793          	li	a5,88
204034fe:	c31c                	sw	a5,0(a4)
20403500:	57fd                	li	a5,-1
20403502:	853e                	mv	a0,a5
20403504:	40f2                	lw	ra,28(sp)
20403506:	4462                	lw	s0,24(sp)
20403508:	6105                	addi	sp,sp,32
2040350a:	8082                	ret

2040350c <_read>:
2040350c:	1101                	addi	sp,sp,-32
2040350e:	ce06                	sw	ra,28(sp)
20403510:	cc22                	sw	s0,24(sp)
20403512:	1000                	addi	s0,sp,32
20403514:	fea42623          	sw	a0,-20(s0)
20403518:	feb42423          	sw	a1,-24(s0)
2040351c:	fec42223          	sw	a2,-28(s0)
20403520:	2229                	jal	2040362a <__errno>
20403522:	872a                	mv	a4,a0
20403524:	05800793          	li	a5,88
20403528:	c31c                	sw	a5,0(a4)
2040352a:	57fd                	li	a5,-1
2040352c:	853e                	mv	a0,a5
2040352e:	40f2                	lw	ra,28(sp)
20403530:	4462                	lw	s0,24(sp)
20403532:	6105                	addi	sp,sp,32
20403534:	8082                	ret

20403536 <_sbrk>:
20403536:	7179                	addi	sp,sp,-48
20403538:	d622                	sw	s0,44(sp)
2040353a:	1800                	addi	s0,sp,48
2040353c:	fca42e23          	sw	a0,-36(s0)
20403540:	800017b7          	lui	a5,0x80001
20403544:	9907a783          	lw	a5,-1648(a5) # 80000990 <metal_segment_heap_target_end+0xffffc990>
20403548:	fef42623          	sw	a5,-20(s0)
2040354c:	800047b7          	lui	a5,0x80004
20403550:	a4078713          	addi	a4,a5,-1472 # 80003a40 <metal_segment_heap_target_end+0xfffffa40>
20403554:	800047b7          	lui	a5,0x80004
20403558:	00078793          	mv	a5,a5
2040355c:	00f71463          	bne	a4,a5,20403564 <_sbrk+0x2e>
20403560:	4781                	li	a5,0
20403562:	a0a1                	j	204035aa <_sbrk+0x74>
20403564:	800017b7          	lui	a5,0x80001
20403568:	9907a703          	lw	a4,-1648(a5) # 80000990 <metal_segment_heap_target_end+0xffffc990>
2040356c:	fdc42783          	lw	a5,-36(s0)
20403570:	973e                	add	a4,a4,a5
20403572:	800047b7          	lui	a5,0x80004
20403576:	00078793          	mv	a5,a5
2040357a:	00f77e63          	bgeu	a4,a5,20403596 <_sbrk+0x60>
2040357e:	800017b7          	lui	a5,0x80001
20403582:	9907a703          	lw	a4,-1648(a5) # 80000990 <metal_segment_heap_target_end+0xffffc990>
20403586:	fdc42783          	lw	a5,-36(s0)
2040358a:	973e                	add	a4,a4,a5
2040358c:	800017b7          	lui	a5,0x80001
20403590:	98e7a823          	sw	a4,-1648(a5) # 80000990 <metal_segment_heap_target_end+0xffffc990>
20403594:	a809                	j	204035a6 <_sbrk+0x70>
20403596:	800017b7          	lui	a5,0x80001
2040359a:	80004737          	lui	a4,0x80004
2040359e:	00070713          	mv	a4,a4
204035a2:	98e7a823          	sw	a4,-1648(a5) # 80000990 <metal_segment_heap_target_end+0xffffc990>
204035a6:	fec42783          	lw	a5,-20(s0)
204035aa:	853e                	mv	a0,a5
204035ac:	5432                	lw	s0,44(sp)
204035ae:	6145                	addi	sp,sp,48
204035b0:	8082                	ret

204035b2 <_write>:
204035b2:	7179                	addi	sp,sp,-48
204035b4:	d606                	sw	ra,44(sp)
204035b6:	d422                	sw	s0,40(sp)
204035b8:	1800                	addi	s0,sp,48
204035ba:	fca42e23          	sw	a0,-36(s0)
204035be:	fcb42c23          	sw	a1,-40(s0)
204035c2:	fcc42a23          	sw	a2,-44(s0)
204035c6:	fdc42703          	lw	a4,-36(s0)
204035ca:	4785                	li	a5,1
204035cc:	00f70963          	beq	a4,a5,204035de <_write+0x2c>
204035d0:	28a9                	jal	2040362a <__errno>
204035d2:	872a                	mv	a4,a0
204035d4:	05800793          	li	a5,88
204035d8:	c31c                	sw	a5,0(a4)
204035da:	57fd                	li	a5,-1
204035dc:	a82d                	j	20403616 <_write+0x64>
204035de:	fd842783          	lw	a5,-40(s0)
204035e2:	fef42423          	sw	a5,-24(s0)
204035e6:	fe042623          	sw	zero,-20(s0)
204035ea:	a839                	j	20403608 <_write+0x56>
204035ec:	fe842703          	lw	a4,-24(s0)
204035f0:	fec42783          	lw	a5,-20(s0)
204035f4:	97ba                	add	a5,a5,a4
204035f6:	0007c783          	lbu	a5,0(a5)
204035fa:	853e                	mv	a0,a5
204035fc:	2d81                	jal	20403c4c <metal_tty_putc>
204035fe:	fec42783          	lw	a5,-20(s0)
20403602:	0785                	addi	a5,a5,1
20403604:	fef42623          	sw	a5,-20(s0)
20403608:	fec42703          	lw	a4,-20(s0)
2040360c:	fd442783          	lw	a5,-44(s0)
20403610:	fcf76ee3          	bltu	a4,a5,204035ec <_write+0x3a>
20403614:	4781                	li	a5,0
20403616:	853e                	mv	a0,a5
20403618:	50b2                	lw	ra,44(sp)
2040361a:	5422                	lw	s0,40(sp)
2040361c:	6145                	addi	sp,sp,48
2040361e:	8082                	ret

20403620 <atexit>:
20403620:	85aa                	mv	a1,a0
20403622:	4681                	li	a3,0
20403624:	4601                	li	a2,0
20403626:	4501                	li	a0,0
20403628:	a0cd                	j	2040370a <__register_exitproc>

2040362a <__errno>:
2040362a:	5fbfd797          	auipc	a5,0x5fbfd
2040362e:	35e78793          	addi	a5,a5,862 # 80000988 <_impure_ptr>
20403632:	4388                	lw	a0,0(a5)
20403634:	8082                	ret

20403636 <exit>:
20403636:	1141                	addi	sp,sp,-16
20403638:	c422                	sw	s0,8(sp)
2040363a:	c606                	sw	ra,12(sp)
2040363c:	00000797          	auipc	a5,0x0
20403640:	15a78793          	addi	a5,a5,346 # 20403796 <__call_exitprocs>
20403644:	842a                	mv	s0,a0
20403646:	c399                	beqz	a5,2040364c <exit+0x16>
20403648:	4581                	li	a1,0
2040364a:	22b1                	jal	20403796 <__call_exitprocs>
2040364c:	5fbfd797          	auipc	a5,0x5fbfd
20403650:	34078793          	addi	a5,a5,832 # 8000098c <_global_impure_ptr>
20403654:	4388                	lw	a0,0(a5)
20403656:	551c                	lw	a5,40(a0)
20403658:	c391                	beqz	a5,2040365c <exit+0x26>
2040365a:	9782                	jalr	a5
2040365c:	8522                	mv	a0,s0
2040365e:	1b4020ef          	jal	ra,20405812 <_exit>

20403662 <__libc_fini_array>:
20403662:	1141                	addi	sp,sp,-16
20403664:	dfbfd797          	auipc	a5,0xdfbfd
20403668:	99c78793          	addi	a5,a5,-1636 # 0 <__heap_size-0x400>
2040366c:	c422                	sw	s0,8(sp)
2040366e:	dfbfd417          	auipc	s0,0xdfbfd
20403672:	99240413          	addi	s0,s0,-1646 # 0 <__heap_size-0x400>
20403676:	8c1d                	sub	s0,s0,a5
20403678:	c226                	sw	s1,4(sp)
2040367a:	c606                	sw	ra,12(sp)
2040367c:	8409                	srai	s0,s0,0x2
2040367e:	84be                	mv	s1,a5
20403680:	e419                	bnez	s0,2040368e <__libc_fini_array+0x2c>
20403682:	4422                	lw	s0,8(sp)
20403684:	40b2                	lw	ra,12(sp)
20403686:	4492                	lw	s1,4(sp)
20403688:	0141                	addi	sp,sp,16
2040368a:	aadfc06f          	j	20400136 <_fini>
2040368e:	147d                	addi	s0,s0,-1
20403690:	00241793          	slli	a5,s0,0x2
20403694:	97a6                	add	a5,a5,s1
20403696:	439c                	lw	a5,0(a5)
20403698:	9782                	jalr	a5
2040369a:	b7dd                	j	20403680 <__libc_fini_array+0x1e>

2040369c <__libc_init_array>:
2040369c:	1141                	addi	sp,sp,-16
2040369e:	00003797          	auipc	a5,0x3
204036a2:	d3278793          	addi	a5,a5,-718 # 204063d0 <__init_array_start>
204036a6:	c422                	sw	s0,8(sp)
204036a8:	00003417          	auipc	s0,0x3
204036ac:	d2840413          	addi	s0,s0,-728 # 204063d0 <__init_array_start>
204036b0:	8c1d                	sub	s0,s0,a5
204036b2:	c226                	sw	s1,4(sp)
204036b4:	c04a                	sw	s2,0(sp)
204036b6:	c606                	sw	ra,12(sp)
204036b8:	8409                	srai	s0,s0,0x2
204036ba:	4481                	li	s1,0
204036bc:	893e                	mv	s2,a5
204036be:	02849863          	bne	s1,s0,204036ee <__libc_init_array+0x52>
204036c2:	a75fc0ef          	jal	ra,20400136 <_fini>
204036c6:	00003797          	auipc	a5,0x3
204036ca:	d0a78793          	addi	a5,a5,-758 # 204063d0 <__init_array_start>
204036ce:	00003417          	auipc	s0,0x3
204036d2:	d0a40413          	addi	s0,s0,-758 # 204063d8 <__init_array_end>
204036d6:	8c1d                	sub	s0,s0,a5
204036d8:	8409                	srai	s0,s0,0x2
204036da:	4481                	li	s1,0
204036dc:	893e                	mv	s2,a5
204036de:	00849f63          	bne	s1,s0,204036fc <__libc_init_array+0x60>
204036e2:	40b2                	lw	ra,12(sp)
204036e4:	4422                	lw	s0,8(sp)
204036e6:	4492                	lw	s1,4(sp)
204036e8:	4902                	lw	s2,0(sp)
204036ea:	0141                	addi	sp,sp,16
204036ec:	8082                	ret
204036ee:	00249793          	slli	a5,s1,0x2
204036f2:	97ca                	add	a5,a5,s2
204036f4:	439c                	lw	a5,0(a5)
204036f6:	0485                	addi	s1,s1,1
204036f8:	9782                	jalr	a5
204036fa:	b7d1                	j	204036be <__libc_init_array+0x22>
204036fc:	00249793          	slli	a5,s1,0x2
20403700:	97ca                	add	a5,a5,s2
20403702:	439c                	lw	a5,0(a5)
20403704:	0485                	addi	s1,s1,1
20403706:	9782                	jalr	a5
20403708:	bfd9                	j	204036de <__libc_init_array+0x42>

2040370a <__register_exitproc>:
2040370a:	5fbfd797          	auipc	a5,0x5fbfd
2040370e:	2ca78793          	addi	a5,a5,714 # 800009d4 <_global_atexit>
20403712:	439c                	lw	a5,0(a5)
20403714:	8e2a                	mv	t3,a0
20403716:	e78d                	bnez	a5,20403740 <__register_exitproc+0x36>
20403718:	5fc00717          	auipc	a4,0x5fc00
2040371c:	a9870713          	addi	a4,a4,-1384 # 800031b0 <_global_atexit0>
20403720:	5fbfd797          	auipc	a5,0x5fbfd
20403724:	2ae7aa23          	sw	a4,692(a5) # 800009d4 <_global_atexit>
20403728:	dfbfd517          	auipc	a0,0xdfbfd
2040372c:	8d850513          	addi	a0,a0,-1832 # 0 <__heap_size-0x400>
20403730:	87ba                	mv	a5,a4
20403732:	c519                	beqz	a0,20403740 <__register_exitproc+0x36>
20403734:	411c                	lw	a5,0(a0)
20403736:	5fc00517          	auipc	a0,0x5fc00
2040373a:	b0f52123          	sw	a5,-1278(a0) # 80003238 <_global_atexit0+0x88>
2040373e:	87ba                	mv	a5,a4
20403740:	43d8                	lw	a4,4(a5)
20403742:	487d                	li	a6,31
20403744:	557d                	li	a0,-1
20403746:	04e84763          	blt	a6,a4,20403794 <__register_exitproc+0x8a>
2040374a:	020e0e63          	beqz	t3,20403786 <__register_exitproc+0x7c>
2040374e:	0887a803          	lw	a6,136(a5)
20403752:	04080163          	beqz	a6,20403794 <__register_exitproc+0x8a>
20403756:	00271893          	slli	a7,a4,0x2
2040375a:	98c2                	add	a7,a7,a6
2040375c:	00c8a023          	sw	a2,0(a7)
20403760:	10082303          	lw	t1,256(a6)
20403764:	4605                	li	a2,1
20403766:	00e61633          	sll	a2,a2,a4
2040376a:	00c36333          	or	t1,t1,a2
2040376e:	10682023          	sw	t1,256(a6)
20403772:	08d8a023          	sw	a3,128(a7)
20403776:	4689                	li	a3,2
20403778:	00de1763          	bne	t3,a3,20403786 <__register_exitproc+0x7c>
2040377c:	10482683          	lw	a3,260(a6)
20403780:	8e55                	or	a2,a2,a3
20403782:	10c82223          	sw	a2,260(a6)
20403786:	00170693          	addi	a3,a4,1
2040378a:	070a                	slli	a4,a4,0x2
2040378c:	c3d4                	sw	a3,4(a5)
2040378e:	97ba                	add	a5,a5,a4
20403790:	c78c                	sw	a1,8(a5)
20403792:	4501                	li	a0,0
20403794:	8082                	ret

20403796 <__call_exitprocs>:
20403796:	7179                	addi	sp,sp,-48
20403798:	cc52                	sw	s4,24(sp)
2040379a:	ca56                	sw	s5,20(sp)
2040379c:	c85a                	sw	s6,16(sp)
2040379e:	c65e                	sw	s7,12(sp)
204037a0:	d606                	sw	ra,44(sp)
204037a2:	d422                	sw	s0,40(sp)
204037a4:	d226                	sw	s1,36(sp)
204037a6:	d04a                	sw	s2,32(sp)
204037a8:	ce4e                	sw	s3,28(sp)
204037aa:	c462                	sw	s8,8(sp)
204037ac:	8b2a                	mv	s6,a0
204037ae:	8a2e                	mv	s4,a1
204037b0:	5fbfda97          	auipc	s5,0x5fbfd
204037b4:	224a8a93          	addi	s5,s5,548 # 800009d4 <_global_atexit>
204037b8:	4b85                	li	s7,1
204037ba:	000aa403          	lw	s0,0(s5)
204037be:	c811                	beqz	s0,204037d2 <__call_exitprocs+0x3c>
204037c0:	4044                	lw	s1,4(s0)
204037c2:	08842983          	lw	s3,136(s0)
204037c6:	fff48913          	addi	s2,s1,-1
204037ca:	048a                	slli	s1,s1,0x2
204037cc:	94a2                	add	s1,s1,s0
204037ce:	00095e63          	bgez	s2,204037ea <__call_exitprocs+0x54>
204037d2:	50b2                	lw	ra,44(sp)
204037d4:	5422                	lw	s0,40(sp)
204037d6:	5492                	lw	s1,36(sp)
204037d8:	5902                	lw	s2,32(sp)
204037da:	49f2                	lw	s3,28(sp)
204037dc:	4a62                	lw	s4,24(sp)
204037de:	4ad2                	lw	s5,20(sp)
204037e0:	4b42                	lw	s6,16(sp)
204037e2:	4bb2                	lw	s7,12(sp)
204037e4:	4c22                	lw	s8,8(sp)
204037e6:	6145                	addi	sp,sp,48
204037e8:	8082                	ret
204037ea:	000a0e63          	beqz	s4,20403806 <__call_exitprocs+0x70>
204037ee:	00099563          	bnez	s3,204037f8 <__call_exitprocs+0x62>
204037f2:	197d                	addi	s2,s2,-1
204037f4:	14f1                	addi	s1,s1,-4
204037f6:	bfe1                	j	204037ce <__call_exitprocs+0x38>
204037f8:	00291793          	slli	a5,s2,0x2
204037fc:	97ce                	add	a5,a5,s3
204037fe:	0807a783          	lw	a5,128(a5)
20403802:	ff4798e3          	bne	a5,s4,204037f2 <__call_exitprocs+0x5c>
20403806:	4058                	lw	a4,4(s0)
20403808:	40dc                	lw	a5,4(s1)
2040380a:	177d                	addi	a4,a4,-1
2040380c:	03271863          	bne	a4,s2,2040383c <__call_exitprocs+0xa6>
20403810:	01242223          	sw	s2,4(s0)
20403814:	dff9                	beqz	a5,204037f2 <__call_exitprocs+0x5c>
20403816:	00442c03          	lw	s8,4(s0)
2040381a:	00098863          	beqz	s3,2040382a <__call_exitprocs+0x94>
2040381e:	1009a683          	lw	a3,256(s3)
20403822:	012b9733          	sll	a4,s7,s2
20403826:	8ef9                	and	a3,a3,a4
20403828:	ee89                	bnez	a3,20403842 <__call_exitprocs+0xac>
2040382a:	9782                	jalr	a5
2040382c:	4058                	lw	a4,4(s0)
2040382e:	000aa783          	lw	a5,0(s5)
20403832:	f98714e3          	bne	a4,s8,204037ba <__call_exitprocs+0x24>
20403836:	faf40ee3          	beq	s0,a5,204037f2 <__call_exitprocs+0x5c>
2040383a:	b741                	j	204037ba <__call_exitprocs+0x24>
2040383c:	0004a223          	sw	zero,4(s1)
20403840:	bfd1                	j	20403814 <__call_exitprocs+0x7e>
20403842:	00291693          	slli	a3,s2,0x2
20403846:	96ce                	add	a3,a3,s3
20403848:	428c                	lw	a1,0(a3)
2040384a:	1049a683          	lw	a3,260(s3)
2040384e:	8f75                	and	a4,a4,a3
20403850:	e701                	bnez	a4,20403858 <__call_exitprocs+0xc2>
20403852:	855a                	mv	a0,s6
20403854:	9782                	jalr	a5
20403856:	bfd9                	j	2040382c <__call_exitprocs+0x96>
20403858:	852e                	mv	a0,a1
2040385a:	9782                	jalr	a5
2040385c:	bfc1                	j	2040382c <__call_exitprocs+0x96>

2040385e <__udivdi3>:
2040385e:	87ae                	mv	a5,a1
20403860:	8832                	mv	a6,a2
20403862:	8736                	mv	a4,a3
20403864:	832a                	mv	t1,a0
20403866:	20069663          	bnez	a3,20403a72 <__udivdi3+0x214>
2040386a:	00003897          	auipc	a7,0x3
2040386e:	80688893          	addi	a7,a7,-2042 # 20406070 <__clz_tab>
20403872:	0ac5fe63          	bgeu	a1,a2,2040392e <__udivdi3+0xd0>
20403876:	6741                	lui	a4,0x10
20403878:	0ae67463          	bgeu	a2,a4,20403920 <__udivdi3+0xc2>
2040387c:	0ff00713          	li	a4,255
20403880:	00c73733          	sltu	a4,a4,a2
20403884:	070e                	slli	a4,a4,0x3
20403886:	00e656b3          	srl	a3,a2,a4
2040388a:	98b6                	add	a7,a7,a3
2040388c:	0008c683          	lbu	a3,0(a7)
20403890:	9736                	add	a4,a4,a3
20403892:	02000693          	li	a3,32
20403896:	8e99                	sub	a3,a3,a4
20403898:	ca99                	beqz	a3,204038ae <__udivdi3+0x50>
2040389a:	00d797b3          	sll	a5,a5,a3
2040389e:	00e55733          	srl	a4,a0,a4
204038a2:	00d61833          	sll	a6,a2,a3
204038a6:	00f765b3          	or	a1,a4,a5
204038aa:	00d51333          	sll	t1,a0,a3
204038ae:	01085513          	srli	a0,a6,0x10
204038b2:	02a5f733          	remu	a4,a1,a0
204038b6:	01081613          	slli	a2,a6,0x10
204038ba:	8241                	srli	a2,a2,0x10
204038bc:	01035693          	srli	a3,t1,0x10
204038c0:	02a5d5b3          	divu	a1,a1,a0
204038c4:	0742                	slli	a4,a4,0x10
204038c6:	8ed9                	or	a3,a3,a4
204038c8:	02b607b3          	mul	a5,a2,a1
204038cc:	872e                	mv	a4,a1
204038ce:	00f6fc63          	bgeu	a3,a5,204038e6 <__udivdi3+0x88>
204038d2:	96c2                	add	a3,a3,a6
204038d4:	fff58713          	addi	a4,a1,-1
204038d8:	0106e763          	bltu	a3,a6,204038e6 <__udivdi3+0x88>
204038dc:	00f6f563          	bgeu	a3,a5,204038e6 <__udivdi3+0x88>
204038e0:	ffe58713          	addi	a4,a1,-2
204038e4:	96c2                	add	a3,a3,a6
204038e6:	8e9d                	sub	a3,a3,a5
204038e8:	02a6f7b3          	remu	a5,a3,a0
204038ec:	0342                	slli	t1,t1,0x10
204038ee:	01035313          	srli	t1,t1,0x10
204038f2:	02a6d6b3          	divu	a3,a3,a0
204038f6:	07c2                	slli	a5,a5,0x10
204038f8:	0067e333          	or	t1,a5,t1
204038fc:	02d605b3          	mul	a1,a2,a3
20403900:	8536                	mv	a0,a3
20403902:	00b37b63          	bgeu	t1,a1,20403918 <__udivdi3+0xba>
20403906:	9342                	add	t1,t1,a6
20403908:	fff68513          	addi	a0,a3,-1
2040390c:	01036663          	bltu	t1,a6,20403918 <__udivdi3+0xba>
20403910:	00b37463          	bgeu	t1,a1,20403918 <__udivdi3+0xba>
20403914:	ffe68513          	addi	a0,a3,-2
20403918:	0742                	slli	a4,a4,0x10
2040391a:	8f49                	or	a4,a4,a0
2040391c:	4581                	li	a1,0
2040391e:	a84d                	j	204039d0 <__udivdi3+0x172>
20403920:	010006b7          	lui	a3,0x1000
20403924:	4741                	li	a4,16
20403926:	f6d660e3          	bltu	a2,a3,20403886 <__udivdi3+0x28>
2040392a:	4761                	li	a4,24
2040392c:	bfa9                	j	20403886 <__udivdi3+0x28>
2040392e:	e601                	bnez	a2,20403936 <__udivdi3+0xd8>
20403930:	4685                	li	a3,1
20403932:	02c6d833          	divu	a6,a3,a2
20403936:	66c1                	lui	a3,0x10
20403938:	08d87e63          	bgeu	a6,a3,204039d4 <__udivdi3+0x176>
2040393c:	0ff00693          	li	a3,255
20403940:	0106f363          	bgeu	a3,a6,20403946 <__udivdi3+0xe8>
20403944:	4721                	li	a4,8
20403946:	00e856b3          	srl	a3,a6,a4
2040394a:	98b6                	add	a7,a7,a3
2040394c:	0008c683          	lbu	a3,0(a7)
20403950:	96ba                	add	a3,a3,a4
20403952:	02000713          	li	a4,32
20403956:	8f15                	sub	a4,a4,a3
20403958:	e749                	bnez	a4,204039e2 <__udivdi3+0x184>
2040395a:	410787b3          	sub	a5,a5,a6
2040395e:	4585                	li	a1,1
20403960:	01085613          	srli	a2,a6,0x10
20403964:	01081893          	slli	a7,a6,0x10
20403968:	0108d893          	srli	a7,a7,0x10
2040396c:	01035693          	srli	a3,t1,0x10
20403970:	02c7f733          	remu	a4,a5,a2
20403974:	02c7d7b3          	divu	a5,a5,a2
20403978:	0742                	slli	a4,a4,0x10
2040397a:	8ed9                	or	a3,a3,a4
2040397c:	02f88533          	mul	a0,a7,a5
20403980:	873e                	mv	a4,a5
20403982:	00a6fc63          	bgeu	a3,a0,2040399a <__udivdi3+0x13c>
20403986:	96c2                	add	a3,a3,a6
20403988:	fff78713          	addi	a4,a5,-1
2040398c:	0106e763          	bltu	a3,a6,2040399a <__udivdi3+0x13c>
20403990:	00a6f563          	bgeu	a3,a0,2040399a <__udivdi3+0x13c>
20403994:	ffe78713          	addi	a4,a5,-2
20403998:	96c2                	add	a3,a3,a6
2040399a:	8e89                	sub	a3,a3,a0
2040399c:	02c6f7b3          	remu	a5,a3,a2
204039a0:	0342                	slli	t1,t1,0x10
204039a2:	01035313          	srli	t1,t1,0x10
204039a6:	02c6d6b3          	divu	a3,a3,a2
204039aa:	07c2                	slli	a5,a5,0x10
204039ac:	0067e333          	or	t1,a5,t1
204039b0:	02d888b3          	mul	a7,a7,a3
204039b4:	8536                	mv	a0,a3
204039b6:	01137b63          	bgeu	t1,a7,204039cc <__udivdi3+0x16e>
204039ba:	9342                	add	t1,t1,a6
204039bc:	fff68513          	addi	a0,a3,-1 # ffff <__stack_size+0xf7ff>
204039c0:	01036663          	bltu	t1,a6,204039cc <__udivdi3+0x16e>
204039c4:	01137463          	bgeu	t1,a7,204039cc <__udivdi3+0x16e>
204039c8:	ffe68513          	addi	a0,a3,-2
204039cc:	0742                	slli	a4,a4,0x10
204039ce:	8f49                	or	a4,a4,a0
204039d0:	853a                	mv	a0,a4
204039d2:	8082                	ret
204039d4:	010006b7          	lui	a3,0x1000
204039d8:	4741                	li	a4,16
204039da:	f6d866e3          	bltu	a6,a3,20403946 <__udivdi3+0xe8>
204039de:	4761                	li	a4,24
204039e0:	b79d                	j	20403946 <__udivdi3+0xe8>
204039e2:	00e81833          	sll	a6,a6,a4
204039e6:	00d7d5b3          	srl	a1,a5,a3
204039ea:	00e51333          	sll	t1,a0,a4
204039ee:	00d556b3          	srl	a3,a0,a3
204039f2:	01085513          	srli	a0,a6,0x10
204039f6:	00e797b3          	sll	a5,a5,a4
204039fa:	02a5f733          	remu	a4,a1,a0
204039fe:	00f6e8b3          	or	a7,a3,a5
20403a02:	01081793          	slli	a5,a6,0x10
20403a06:	83c1                	srli	a5,a5,0x10
20403a08:	0108d613          	srli	a2,a7,0x10
20403a0c:	02a5d5b3          	divu	a1,a1,a0
20403a10:	0742                	slli	a4,a4,0x10
20403a12:	8f51                	or	a4,a4,a2
20403a14:	02b786b3          	mul	a3,a5,a1
20403a18:	862e                	mv	a2,a1
20403a1a:	00d77c63          	bgeu	a4,a3,20403a32 <__udivdi3+0x1d4>
20403a1e:	9742                	add	a4,a4,a6
20403a20:	fff58613          	addi	a2,a1,-1
20403a24:	01076763          	bltu	a4,a6,20403a32 <__udivdi3+0x1d4>
20403a28:	00d77563          	bgeu	a4,a3,20403a32 <__udivdi3+0x1d4>
20403a2c:	ffe58613          	addi	a2,a1,-2
20403a30:	9742                	add	a4,a4,a6
20403a32:	40d706b3          	sub	a3,a4,a3
20403a36:	02a6f733          	remu	a4,a3,a0
20403a3a:	08c2                	slli	a7,a7,0x10
20403a3c:	0108d893          	srli	a7,a7,0x10
20403a40:	02a6d6b3          	divu	a3,a3,a0
20403a44:	0742                	slli	a4,a4,0x10
20403a46:	02d785b3          	mul	a1,a5,a3
20403a4a:	011767b3          	or	a5,a4,a7
20403a4e:	8736                	mv	a4,a3
20403a50:	00b7fc63          	bgeu	a5,a1,20403a68 <__udivdi3+0x20a>
20403a54:	97c2                	add	a5,a5,a6
20403a56:	fff68713          	addi	a4,a3,-1 # ffffff <__stack_size+0xfff7ff>
20403a5a:	0107e763          	bltu	a5,a6,20403a68 <__udivdi3+0x20a>
20403a5e:	00b7f563          	bgeu	a5,a1,20403a68 <__udivdi3+0x20a>
20403a62:	ffe68713          	addi	a4,a3,-2
20403a66:	97c2                	add	a5,a5,a6
20403a68:	8f8d                	sub	a5,a5,a1
20403a6a:	01061593          	slli	a1,a2,0x10
20403a6e:	8dd9                	or	a1,a1,a4
20403a70:	bdc5                	j	20403960 <__udivdi3+0x102>
20403a72:	14d5e263          	bltu	a1,a3,20403bb6 <__udivdi3+0x358>
20403a76:	6741                	lui	a4,0x10
20403a78:	02e6fe63          	bgeu	a3,a4,20403ab4 <__udivdi3+0x256>
20403a7c:	0ff00813          	li	a6,255
20403a80:	00d83733          	sltu	a4,a6,a3
20403a84:	070e                	slli	a4,a4,0x3
20403a86:	00e6d833          	srl	a6,a3,a4
20403a8a:	00002597          	auipc	a1,0x2
20403a8e:	5e658593          	addi	a1,a1,1510 # 20406070 <__clz_tab>
20403a92:	95c2                	add	a1,a1,a6
20403a94:	0005c803          	lbu	a6,0(a1)
20403a98:	02000593          	li	a1,32
20403a9c:	983a                	add	a6,a6,a4
20403a9e:	410585b3          	sub	a1,a1,a6
20403aa2:	e185                	bnez	a1,20403ac2 <__udivdi3+0x264>
20403aa4:	4705                	li	a4,1
20403aa6:	f2f6e5e3          	bltu	a3,a5,204039d0 <__udivdi3+0x172>
20403aaa:	00c53533          	sltu	a0,a0,a2
20403aae:	00154713          	xori	a4,a0,1
20403ab2:	bf39                	j	204039d0 <__udivdi3+0x172>
20403ab4:	010005b7          	lui	a1,0x1000
20403ab8:	4741                	li	a4,16
20403aba:	fcb6e6e3          	bltu	a3,a1,20403a86 <__udivdi3+0x228>
20403abe:	4761                	li	a4,24
20403ac0:	b7d9                	j	20403a86 <__udivdi3+0x228>
20403ac2:	01065733          	srl	a4,a2,a6
20403ac6:	00b696b3          	sll	a3,a3,a1
20403aca:	8ed9                	or	a3,a3,a4
20403acc:	0106de93          	srli	t4,a3,0x10
20403ad0:	0107d733          	srl	a4,a5,a6
20403ad4:	03d778b3          	remu	a7,a4,t4
20403ad8:	00b797b3          	sll	a5,a5,a1
20403adc:	01055833          	srl	a6,a0,a6
20403ae0:	00f86333          	or	t1,a6,a5
20403ae4:	01069793          	slli	a5,a3,0x10
20403ae8:	83c1                	srli	a5,a5,0x10
20403aea:	01035813          	srli	a6,t1,0x10
20403aee:	00b61633          	sll	a2,a2,a1
20403af2:	03d75733          	divu	a4,a4,t4
20403af6:	08c2                	slli	a7,a7,0x10
20403af8:	0108e833          	or	a6,a7,a6
20403afc:	02e78f33          	mul	t5,a5,a4
20403b00:	8e3a                	mv	t3,a4
20403b02:	01e87c63          	bgeu	a6,t5,20403b1a <__udivdi3+0x2bc>
20403b06:	9836                	add	a6,a6,a3
20403b08:	fff70e13          	addi	t3,a4,-1 # ffff <__stack_size+0xf7ff>
20403b0c:	00d86763          	bltu	a6,a3,20403b1a <__udivdi3+0x2bc>
20403b10:	01e87563          	bgeu	a6,t5,20403b1a <__udivdi3+0x2bc>
20403b14:	ffe70e13          	addi	t3,a4,-2
20403b18:	9836                	add	a6,a6,a3
20403b1a:	41e80833          	sub	a6,a6,t5
20403b1e:	03d878b3          	remu	a7,a6,t4
20403b22:	03d85833          	divu	a6,a6,t4
20403b26:	08c2                	slli	a7,a7,0x10
20403b28:	03078eb3          	mul	t4,a5,a6
20403b2c:	01031793          	slli	a5,t1,0x10
20403b30:	83c1                	srli	a5,a5,0x10
20403b32:	00f8e7b3          	or	a5,a7,a5
20403b36:	8742                	mv	a4,a6
20403b38:	01d7fc63          	bgeu	a5,t4,20403b50 <__udivdi3+0x2f2>
20403b3c:	97b6                	add	a5,a5,a3
20403b3e:	fff80713          	addi	a4,a6,-1
20403b42:	00d7e763          	bltu	a5,a3,20403b50 <__udivdi3+0x2f2>
20403b46:	01d7f563          	bgeu	a5,t4,20403b50 <__udivdi3+0x2f2>
20403b4a:	ffe80713          	addi	a4,a6,-2
20403b4e:	97b6                	add	a5,a5,a3
20403b50:	0e42                	slli	t3,t3,0x10
20403b52:	41d787b3          	sub	a5,a5,t4
20403b56:	6ec1                	lui	t4,0x10
20403b58:	00ee6733          	or	a4,t3,a4
20403b5c:	fffe8813          	addi	a6,t4,-1 # ffff <__stack_size+0xf7ff>
20403b60:	01077333          	and	t1,a4,a6
20403b64:	01075893          	srli	a7,a4,0x10
20403b68:	01067833          	and	a6,a2,a6
20403b6c:	8241                	srli	a2,a2,0x10
20403b6e:	03030e33          	mul	t3,t1,a6
20403b72:	03088833          	mul	a6,a7,a6
20403b76:	010e5693          	srli	a3,t3,0x10
20403b7a:	02c30333          	mul	t1,t1,a2
20403b7e:	9342                	add	t1,t1,a6
20403b80:	969a                	add	a3,a3,t1
20403b82:	02c888b3          	mul	a7,a7,a2
20403b86:	0106f363          	bgeu	a3,a6,20403b8c <__udivdi3+0x32e>
20403b8a:	98f6                	add	a7,a7,t4
20403b8c:	0106d613          	srli	a2,a3,0x10
20403b90:	98b2                	add	a7,a7,a2
20403b92:	0317e063          	bltu	a5,a7,20403bb2 <__udivdi3+0x354>
20403b96:	d91793e3          	bne	a5,a7,2040391c <__udivdi3+0xbe>
20403b9a:	67c1                	lui	a5,0x10
20403b9c:	17fd                	addi	a5,a5,-1
20403b9e:	8efd                	and	a3,a3,a5
20403ba0:	06c2                	slli	a3,a3,0x10
20403ba2:	00fe7e33          	and	t3,t3,a5
20403ba6:	00b51533          	sll	a0,a0,a1
20403baa:	96f2                	add	a3,a3,t3
20403bac:	4581                	li	a1,0
20403bae:	e2d571e3          	bgeu	a0,a3,204039d0 <__udivdi3+0x172>
20403bb2:	177d                	addi	a4,a4,-1
20403bb4:	b3a5                	j	2040391c <__udivdi3+0xbe>
20403bb6:	4581                	li	a1,0
20403bb8:	4701                	li	a4,0
20403bba:	bd19                	j	204039d0 <__udivdi3+0x172>

20403bbc <metal_timer_get_cyclecount>:
20403bbc:	7179                	addi	sp,sp,-48
20403bbe:	d606                	sw	ra,44(sp)
20403bc0:	d422                	sw	s0,40(sp)
20403bc2:	1800                	addi	s0,sp,48
20403bc4:	fca42e23          	sw	a0,-36(s0)
20403bc8:	fcb42c23          	sw	a1,-40(s0)
20403bcc:	fdc42503          	lw	a0,-36(s0)
20403bd0:	409010ef          	jal	ra,204057d8 <metal_cpu_get>
20403bd4:	fea42623          	sw	a0,-20(s0)
20403bd8:	fec42783          	lw	a5,-20(s0)
20403bdc:	cf91                	beqz	a5,20403bf8 <metal_timer_get_cyclecount+0x3c>
20403bde:	fec42503          	lw	a0,-20(s0)
20403be2:	3a3010ef          	jal	ra,20405784 <metal_cpu_get_timer>
20403be6:	87aa                	mv	a5,a0
20403be8:	882e                	mv	a6,a1
20403bea:	fd842703          	lw	a4,-40(s0)
20403bee:	c31c                	sw	a5,0(a4)
20403bf0:	01072223          	sw	a6,4(a4)
20403bf4:	4781                	li	a5,0
20403bf6:	a011                	j	20403bfa <metal_timer_get_cyclecount+0x3e>
20403bf8:	57fd                	li	a5,-1
20403bfa:	853e                	mv	a0,a5
20403bfc:	50b2                	lw	ra,44(sp)
20403bfe:	5422                	lw	s0,40(sp)
20403c00:	6145                	addi	sp,sp,48
20403c02:	8082                	ret

20403c04 <metal_timer_get_timebase_frequency>:
20403c04:	7179                	addi	sp,sp,-48
20403c06:	d606                	sw	ra,44(sp)
20403c08:	d422                	sw	s0,40(sp)
20403c0a:	1800                	addi	s0,sp,48
20403c0c:	fca42e23          	sw	a0,-36(s0)
20403c10:	fcb42c23          	sw	a1,-40(s0)
20403c14:	fdc42503          	lw	a0,-36(s0)
20403c18:	3c1010ef          	jal	ra,204057d8 <metal_cpu_get>
20403c1c:	fea42623          	sw	a0,-20(s0)
20403c20:	fec42783          	lw	a5,-20(s0)
20403c24:	cf91                	beqz	a5,20403c40 <metal_timer_get_timebase_frequency+0x3c>
20403c26:	fec42503          	lw	a0,-20(s0)
20403c2a:	385010ef          	jal	ra,204057ae <metal_cpu_get_timebase>
20403c2e:	87aa                	mv	a5,a0
20403c30:	882e                	mv	a6,a1
20403c32:	fd842703          	lw	a4,-40(s0)
20403c36:	c31c                	sw	a5,0(a4)
20403c38:	01072223          	sw	a6,4(a4)
20403c3c:	4781                	li	a5,0
20403c3e:	a011                	j	20403c42 <metal_timer_get_timebase_frequency+0x3e>
20403c40:	57fd                	li	a5,-1
20403c42:	853e                	mv	a0,a5
20403c44:	50b2                	lw	ra,44(sp)
20403c46:	5422                	lw	s0,40(sp)
20403c48:	6145                	addi	sp,sp,48
20403c4a:	8082                	ret

20403c4c <metal_tty_putc>:
20403c4c:	7179                	addi	sp,sp,-48
20403c4e:	d606                	sw	ra,44(sp)
20403c50:	d422                	sw	s0,40(sp)
20403c52:	1800                	addi	s0,sp,48
20403c54:	87aa                	mv	a5,a0
20403c56:	fcf40fa3          	sb	a5,-33(s0)
20403c5a:	fdf44703          	lbu	a4,-33(s0)
20403c5e:	47a9                	li	a5,10
20403c60:	02f71063          	bne	a4,a5,20403c80 <metal_tty_putc+0x34>
20403c64:	45b5                	li	a1,13
20403c66:	800017b7          	lui	a5,0x80001
20403c6a:	95878513          	addi	a0,a5,-1704 # 80000958 <metal_segment_heap_target_end+0xffffc958>
20403c6e:	28ad                	jal	20403ce8 <metal_uart_putc>
20403c70:	fea42623          	sw	a0,-20(s0)
20403c74:	fec42783          	lw	a5,-20(s0)
20403c78:	c781                	beqz	a5,20403c80 <metal_tty_putc+0x34>
20403c7a:	fec42783          	lw	a5,-20(s0)
20403c7e:	a811                	j	20403c92 <metal_tty_putc+0x46>
20403c80:	fdf44783          	lbu	a5,-33(s0)
20403c84:	85be                	mv	a1,a5
20403c86:	800017b7          	lui	a5,0x80001
20403c8a:	95878513          	addi	a0,a5,-1704 # 80000958 <metal_segment_heap_target_end+0xffffc958>
20403c8e:	28a9                	jal	20403ce8 <metal_uart_putc>
20403c90:	87aa                	mv	a5,a0
20403c92:	853e                	mv	a0,a5
20403c94:	50b2                	lw	ra,44(sp)
20403c96:	5422                	lw	s0,40(sp)
20403c98:	6145                	addi	sp,sp,48
20403c9a:	8082                	ret

20403c9c <metal_tty_init>:
20403c9c:	1141                	addi	sp,sp,-16
20403c9e:	c606                	sw	ra,12(sp)
20403ca0:	c422                	sw	s0,8(sp)
20403ca2:	0800                	addi	s0,sp,16
20403ca4:	67f1                	lui	a5,0x1c
20403ca6:	20078593          	addi	a1,a5,512 # 1c200 <__stack_size+0x1ba00>
20403caa:	800017b7          	lui	a5,0x80001
20403cae:	95878513          	addi	a0,a5,-1704 # 80000958 <metal_segment_heap_target_end+0xffffc958>
20403cb2:	2031                	jal	20403cbe <metal_uart_init>
20403cb4:	0001                	nop
20403cb6:	40b2                	lw	ra,12(sp)
20403cb8:	4422                	lw	s0,8(sp)
20403cba:	0141                	addi	sp,sp,16
20403cbc:	8082                	ret

20403cbe <metal_uart_init>:
20403cbe:	1101                	addi	sp,sp,-32
20403cc0:	ce06                	sw	ra,28(sp)
20403cc2:	cc22                	sw	s0,24(sp)
20403cc4:	1000                	addi	s0,sp,32
20403cc6:	fea42623          	sw	a0,-20(s0)
20403cca:	feb42423          	sw	a1,-24(s0)
20403cce:	fec42783          	lw	a5,-20(s0)
20403cd2:	439c                	lw	a5,0(a5)
20403cd4:	439c                	lw	a5,0(a5)
20403cd6:	fe842583          	lw	a1,-24(s0)
20403cda:	fec42503          	lw	a0,-20(s0)
20403cde:	9782                	jalr	a5
20403ce0:	40f2                	lw	ra,28(sp)
20403ce2:	4462                	lw	s0,24(sp)
20403ce4:	6105                	addi	sp,sp,32
20403ce6:	8082                	ret

20403ce8 <metal_uart_putc>:
20403ce8:	1101                	addi	sp,sp,-32
20403cea:	ce06                	sw	ra,28(sp)
20403cec:	cc22                	sw	s0,24(sp)
20403cee:	1000                	addi	s0,sp,32
20403cf0:	fea42623          	sw	a0,-20(s0)
20403cf4:	87ae                	mv	a5,a1
20403cf6:	fef405a3          	sb	a5,-21(s0)
20403cfa:	fec42783          	lw	a5,-20(s0)
20403cfe:	439c                	lw	a5,0(a5)
20403d00:	43d8                	lw	a4,4(a5)
20403d02:	feb44783          	lbu	a5,-21(s0)
20403d06:	85be                	mv	a1,a5
20403d08:	fec42503          	lw	a0,-20(s0)
20403d0c:	9702                	jalr	a4
20403d0e:	87aa                	mv	a5,a0
20403d10:	853e                	mv	a0,a5
20403d12:	40f2                	lw	ra,28(sp)
20403d14:	4462                	lw	s0,24(sp)
20403d16:	6105                	addi	sp,sp,32
20403d18:	8082                	ret

20403d1a <metal_uart_set_baud_rate>:
20403d1a:	1101                	addi	sp,sp,-32
20403d1c:	ce06                	sw	ra,28(sp)
20403d1e:	cc22                	sw	s0,24(sp)
20403d20:	1000                	addi	s0,sp,32
20403d22:	fea42623          	sw	a0,-20(s0)
20403d26:	feb42423          	sw	a1,-24(s0)
20403d2a:	fec42783          	lw	a5,-20(s0)
20403d2e:	439c                	lw	a5,0(a5)
20403d30:	4b9c                	lw	a5,16(a5)
20403d32:	fe842583          	lw	a1,-24(s0)
20403d36:	fec42503          	lw	a0,-20(s0)
20403d3a:	9782                	jalr	a5
20403d3c:	87aa                	mv	a5,a0
20403d3e:	853e                	mv	a0,a5
20403d40:	40f2                	lw	ra,28(sp)
20403d42:	4462                	lw	s0,24(sp)
20403d44:	6105                	addi	sp,sp,32
20403d46:	8082                	ret

20403d48 <__metal_driver_fixed_clock_get_rate_hz>:
20403d48:	7179                	addi	sp,sp,-48
20403d4a:	d622                	sw	s0,44(sp)
20403d4c:	1800                	addi	s0,sp,48
20403d4e:	fca42e23          	sw	a0,-36(s0)
20403d52:	fdc42783          	lw	a5,-36(s0)
20403d56:	fef42623          	sw	a5,-20(s0)
20403d5a:	fec42783          	lw	a5,-20(s0)
20403d5e:	4f9c                	lw	a5,24(a5)
20403d60:	853e                	mv	a0,a5
20403d62:	5432                	lw	s0,44(sp)
20403d64:	6145                	addi	sp,sp,48
20403d66:	8082                	ret

20403d68 <__metal_driver_fixed_clock_set_rate_hz>:
20403d68:	1101                	addi	sp,sp,-32
20403d6a:	ce06                	sw	ra,28(sp)
20403d6c:	cc22                	sw	s0,24(sp)
20403d6e:	1000                	addi	s0,sp,32
20403d70:	fea42623          	sw	a0,-20(s0)
20403d74:	feb42423          	sw	a1,-24(s0)
20403d78:	fec42503          	lw	a0,-20(s0)
20403d7c:	37f1                	jal	20403d48 <__metal_driver_fixed_clock_get_rate_hz>
20403d7e:	87aa                	mv	a5,a0
20403d80:	853e                	mv	a0,a5
20403d82:	40f2                	lw	ra,28(sp)
20403d84:	4462                	lw	s0,24(sp)
20403d86:	6105                	addi	sp,sp,32
20403d88:	8082                	ret

20403d8a <__metal_clint0_mtime_get>:
20403d8a:	7179                	addi	sp,sp,-48
20403d8c:	d622                	sw	s0,44(sp)
20403d8e:	1800                	addi	s0,sp,48
20403d90:	fca42e23          	sw	a0,-36(s0)
20403d94:	fdc42503          	lw	a0,-36(s0)
20403d98:	00852883          	lw	a7,8(a0)
20403d9c:	6531                	lui	a0,0xc
20403d9e:	1571                	addi	a0,a0,-4
20403da0:	9546                	add	a0,a0,a7
20403da2:	4108                	lw	a0,0(a0)
20403da4:	fea42623          	sw	a0,-20(s0)
20403da8:	fdc42503          	lw	a0,-36(s0)
20403dac:	00852883          	lw	a7,8(a0) # c008 <__stack_size+0xb808>
20403db0:	6531                	lui	a0,0xc
20403db2:	1561                	addi	a0,a0,-8
20403db4:	9546                	add	a0,a0,a7
20403db6:	4108                	lw	a0,0(a0)
20403db8:	fea42423          	sw	a0,-24(s0)
20403dbc:	fdc42503          	lw	a0,-36(s0)
20403dc0:	00852883          	lw	a7,8(a0) # c008 <__stack_size+0xb808>
20403dc4:	6531                	lui	a0,0xc
20403dc6:	1571                	addi	a0,a0,-4
20403dc8:	9546                	add	a0,a0,a7
20403dca:	4108                	lw	a0,0(a0)
20403dcc:	fec42883          	lw	a7,-20(s0)
20403dd0:	fca892e3          	bne	a7,a0,20403d94 <__metal_clint0_mtime_get+0xa>
20403dd4:	fec42503          	lw	a0,-20(s0)
20403dd8:	832a                	mv	t1,a0
20403dda:	4381                	li	t2,0
20403ddc:	00031813          	slli	a6,t1,0x0
20403de0:	4781                	li	a5,0
20403de2:	fe842503          	lw	a0,-24(s0)
20403de6:	86aa                	mv	a3,a0
20403de8:	4701                	li	a4,0
20403dea:	00d7e5b3          	or	a1,a5,a3
20403dee:	00e86633          	or	a2,a6,a4
20403df2:	87ae                	mv	a5,a1
20403df4:	8832                	mv	a6,a2
20403df6:	853e                	mv	a0,a5
20403df8:	85c2                	mv	a1,a6
20403dfa:	5432                	lw	s0,44(sp)
20403dfc:	6145                	addi	sp,sp,48
20403dfe:	8082                	ret

20403e00 <__metal_clint0_mtime_set>:
20403e00:	1101                	addi	sp,sp,-32
20403e02:	ce22                	sw	s0,28(sp)
20403e04:	1000                	addi	s0,sp,32
20403e06:	fea42623          	sw	a0,-20(s0)
20403e0a:	feb42023          	sw	a1,-32(s0)
20403e0e:	fec42223          	sw	a2,-28(s0)
20403e12:	fec42703          	lw	a4,-20(s0)
20403e16:	4714                	lw	a3,8(a4)
20403e18:	6711                	lui	a4,0x4
20403e1a:	0711                	addi	a4,a4,4
20403e1c:	9736                	add	a4,a4,a3
20403e1e:	86ba                	mv	a3,a4
20403e20:	577d                	li	a4,-1
20403e22:	c298                	sw	a4,0(a3)
20403e24:	fec42703          	lw	a4,-20(s0)
20403e28:	4714                	lw	a3,8(a4)
20403e2a:	6711                	lui	a4,0x4
20403e2c:	9736                	add	a4,a4,a3
20403e2e:	86ba                	mv	a3,a4
20403e30:	fe042703          	lw	a4,-32(s0)
20403e34:	c298                	sw	a4,0(a3)
20403e36:	fe442703          	lw	a4,-28(s0)
20403e3a:	00075793          	srli	a5,a4,0x0
20403e3e:	4801                	li	a6,0
20403e40:	fec42703          	lw	a4,-20(s0)
20403e44:	4714                	lw	a3,8(a4)
20403e46:	6711                	lui	a4,0x4
20403e48:	0711                	addi	a4,a4,4
20403e4a:	9736                	add	a4,a4,a3
20403e4c:	c31c                	sw	a5,0(a4)
20403e4e:	4781                	li	a5,0
20403e50:	853e                	mv	a0,a5
20403e52:	4472                	lw	s0,28(sp)
20403e54:	6105                	addi	sp,sp,32
20403e56:	8082                	ret

20403e58 <__metal_driver_riscv_clint0_init>:
20403e58:	7179                	addi	sp,sp,-48
20403e5a:	d606                	sw	ra,44(sp)
20403e5c:	d422                	sw	s0,40(sp)
20403e5e:	1800                	addi	s0,sp,48
20403e60:	fca42e23          	sw	a0,-36(s0)
20403e64:	fdc42783          	lw	a5,-36(s0)
20403e68:	fef42423          	sw	a5,-24(s0)
20403e6c:	fe842783          	lw	a5,-24(s0)
20403e70:	4b9c                	lw	a5,16(a5)
20403e72:	efa9                	bnez	a5,20403ecc <__metal_driver_riscv_clint0_init+0x74>
20403e74:	fe842783          	lw	a5,-24(s0)
20403e78:	4bdc                	lw	a5,20(a5)
20403e7a:	fef42223          	sw	a5,-28(s0)
20403e7e:	fe042623          	sw	zero,-20(s0)
20403e82:	a815                	j	20403eb6 <__metal_driver_riscv_clint0_init+0x5e>
20403e84:	fe442783          	lw	a5,-28(s0)
20403e88:	439c                	lw	a5,0(a5)
20403e8a:	0047a803          	lw	a6,4(a5)
20403e8e:	fe842703          	lw	a4,-24(s0)
20403e92:	fec42783          	lw	a5,-20(s0)
20403e96:	0791                	addi	a5,a5,4
20403e98:	078a                	slli	a5,a5,0x2
20403e9a:	97ba                	add	a5,a5,a4
20403e9c:	47dc                	lw	a5,12(a5)
20403e9e:	fe842683          	lw	a3,-24(s0)
20403ea2:	4601                	li	a2,0
20403ea4:	85be                	mv	a1,a5
20403ea6:	fe442503          	lw	a0,-28(s0)
20403eaa:	9802                	jalr	a6
20403eac:	fec42783          	lw	a5,-20(s0)
20403eb0:	0785                	addi	a5,a5,1
20403eb2:	fef42623          	sw	a5,-20(s0)
20403eb6:	fe842783          	lw	a5,-24(s0)
20403eba:	4f9c                	lw	a5,24(a5)
20403ebc:	fec42703          	lw	a4,-20(s0)
20403ec0:	fcf742e3          	blt	a4,a5,20403e84 <__metal_driver_riscv_clint0_init+0x2c>
20403ec4:	fe842783          	lw	a5,-24(s0)
20403ec8:	4705                	li	a4,1
20403eca:	cb98                	sw	a4,16(a5)
20403ecc:	0001                	nop
20403ece:	50b2                	lw	ra,44(sp)
20403ed0:	5422                	lw	s0,40(sp)
20403ed2:	6145                	addi	sp,sp,48
20403ed4:	8082                	ret

20403ed6 <__metal_driver_riscv_clint0_register>:
20403ed6:	7179                	addi	sp,sp,-48
20403ed8:	d606                	sw	ra,44(sp)
20403eda:	d422                	sw	s0,40(sp)
20403edc:	1800                	addi	s0,sp,48
20403ede:	fca42e23          	sw	a0,-36(s0)
20403ee2:	fcb42c23          	sw	a1,-40(s0)
20403ee6:	fcc42a23          	sw	a2,-44(s0)
20403eea:	fcd42823          	sw	a3,-48(s0)
20403eee:	57fd                	li	a5,-1
20403ef0:	fef42623          	sw	a5,-20(s0)
20403ef4:	fdc42783          	lw	a5,-36(s0)
20403ef8:	fef42423          	sw	a5,-24(s0)
20403efc:	fe842783          	lw	a5,-24(s0)
20403f00:	4bdc                	lw	a5,20(a5)
20403f02:	fef42223          	sw	a5,-28(s0)
20403f06:	fe442783          	lw	a5,-28(s0)
20403f0a:	c385                	beqz	a5,20403f2a <__metal_driver_riscv_clint0_register+0x54>
20403f0c:	fe442783          	lw	a5,-28(s0)
20403f10:	439c                	lw	a5,0(a5)
20403f12:	43dc                	lw	a5,4(a5)
20403f14:	fd042683          	lw	a3,-48(s0)
20403f18:	fd442603          	lw	a2,-44(s0)
20403f1c:	fd842583          	lw	a1,-40(s0)
20403f20:	fe442503          	lw	a0,-28(s0)
20403f24:	9782                	jalr	a5
20403f26:	fea42623          	sw	a0,-20(s0)
20403f2a:	fec42783          	lw	a5,-20(s0)
20403f2e:	853e                	mv	a0,a5
20403f30:	50b2                	lw	ra,44(sp)
20403f32:	5422                	lw	s0,40(sp)
20403f34:	6145                	addi	sp,sp,48
20403f36:	8082                	ret

20403f38 <__metal_driver_riscv_clint0_enable>:
20403f38:	7179                	addi	sp,sp,-48
20403f3a:	d606                	sw	ra,44(sp)
20403f3c:	d422                	sw	s0,40(sp)
20403f3e:	1800                	addi	s0,sp,48
20403f40:	fca42e23          	sw	a0,-36(s0)
20403f44:	fcb42c23          	sw	a1,-40(s0)
20403f48:	57fd                	li	a5,-1
20403f4a:	fef42623          	sw	a5,-20(s0)
20403f4e:	fdc42783          	lw	a5,-36(s0)
20403f52:	fef42423          	sw	a5,-24(s0)
20403f56:	fd842783          	lw	a5,-40(s0)
20403f5a:	c785                	beqz	a5,20403f82 <__metal_driver_riscv_clint0_enable+0x4a>
20403f5c:	fe842783          	lw	a5,-24(s0)
20403f60:	4bdc                	lw	a5,20(a5)
20403f62:	fef42223          	sw	a5,-28(s0)
20403f66:	fe442783          	lw	a5,-28(s0)
20403f6a:	cf81                	beqz	a5,20403f82 <__metal_driver_riscv_clint0_enable+0x4a>
20403f6c:	fe442783          	lw	a5,-28(s0)
20403f70:	439c                	lw	a5,0(a5)
20403f72:	479c                	lw	a5,8(a5)
20403f74:	fd842583          	lw	a1,-40(s0)
20403f78:	fe442503          	lw	a0,-28(s0)
20403f7c:	9782                	jalr	a5
20403f7e:	fea42623          	sw	a0,-20(s0)
20403f82:	0001                	nop
20403f84:	853e                	mv	a0,a5
20403f86:	50b2                	lw	ra,44(sp)
20403f88:	5422                	lw	s0,40(sp)
20403f8a:	6145                	addi	sp,sp,48
20403f8c:	8082                	ret

20403f8e <__metal_driver_riscv_clint0_disable>:
20403f8e:	7179                	addi	sp,sp,-48
20403f90:	d606                	sw	ra,44(sp)
20403f92:	d422                	sw	s0,40(sp)
20403f94:	1800                	addi	s0,sp,48
20403f96:	fca42e23          	sw	a0,-36(s0)
20403f9a:	fcb42c23          	sw	a1,-40(s0)
20403f9e:	57fd                	li	a5,-1
20403fa0:	fef42623          	sw	a5,-20(s0)
20403fa4:	fdc42783          	lw	a5,-36(s0)
20403fa8:	fef42423          	sw	a5,-24(s0)
20403fac:	fd842783          	lw	a5,-40(s0)
20403fb0:	c785                	beqz	a5,20403fd8 <__metal_driver_riscv_clint0_disable+0x4a>
20403fb2:	fe842783          	lw	a5,-24(s0)
20403fb6:	4bdc                	lw	a5,20(a5)
20403fb8:	fef42223          	sw	a5,-28(s0)
20403fbc:	fe442783          	lw	a5,-28(s0)
20403fc0:	cf81                	beqz	a5,20403fd8 <__metal_driver_riscv_clint0_disable+0x4a>
20403fc2:	fe442783          	lw	a5,-28(s0)
20403fc6:	439c                	lw	a5,0(a5)
20403fc8:	47dc                	lw	a5,12(a5)
20403fca:	fd842583          	lw	a1,-40(s0)
20403fce:	fe442503          	lw	a0,-28(s0)
20403fd2:	9782                	jalr	a5
20403fd4:	fea42623          	sw	a0,-20(s0)
20403fd8:	0001                	nop
20403fda:	853e                	mv	a0,a5
20403fdc:	50b2                	lw	ra,44(sp)
20403fde:	5422                	lw	s0,40(sp)
20403fe0:	6145                	addi	sp,sp,48
20403fe2:	8082                	ret

20403fe4 <__metal_driver_riscv_clint0_command_request>:
20403fe4:	7179                	addi	sp,sp,-48
20403fe6:	d606                	sw	ra,44(sp)
20403fe8:	d422                	sw	s0,40(sp)
20403fea:	1800                	addi	s0,sp,48
20403fec:	fca42e23          	sw	a0,-36(s0)
20403ff0:	fcb42c23          	sw	a1,-40(s0)
20403ff4:	fcc42a23          	sw	a2,-44(s0)
20403ff8:	57fd                	li	a5,-1
20403ffa:	fef42623          	sw	a5,-20(s0)
20403ffe:	fdc42783          	lw	a5,-36(s0)
20404002:	fef42423          	sw	a5,-24(s0)
20404006:	fd842703          	lw	a4,-40(s0)
2040400a:	4795                	li	a5,5
2040400c:	0ce7eb63          	bltu	a5,a4,204040e2 <__metal_driver_riscv_clint0_command_request+0xfe>
20404010:	fd842783          	lw	a5,-40(s0)
20404014:	00279713          	slli	a4,a5,0x2
20404018:	204067b7          	lui	a5,0x20406
2040401c:	25078793          	addi	a5,a5,592 # 20406250 <__metal_driver_vtable_sifive_uart0+0x1c>
20404020:	97ba                	add	a5,a5,a4
20404022:	439c                	lw	a5,0(a5)
20404024:	8782                	jr	a5
20404026:	fd442783          	lw	a5,-44(s0)
2040402a:	cfd5                	beqz	a5,204040e6 <__metal_driver_riscv_clint0_command_request+0x102>
2040402c:	fe842503          	lw	a0,-24(s0)
20404030:	3ba9                	jal	20403d8a <__metal_clint0_mtime_get>
20404032:	87aa                	mv	a5,a0
20404034:	882e                	mv	a6,a1
20404036:	fd442703          	lw	a4,-44(s0)
2040403a:	c31c                	sw	a5,0(a4)
2040403c:	01072223          	sw	a6,4(a4) # 4004 <__stack_size+0x3804>
20404040:	fe042623          	sw	zero,-20(s0)
20404044:	a04d                	j	204040e6 <__metal_driver_riscv_clint0_command_request+0x102>
20404046:	fd442783          	lw	a5,-44(s0)
2040404a:	c3c5                	beqz	a5,204040ea <__metal_driver_riscv_clint0_command_request+0x106>
2040404c:	fd442783          	lw	a5,-44(s0)
20404050:	0047a803          	lw	a6,4(a5)
20404054:	439c                	lw	a5,0(a5)
20404056:	85be                	mv	a1,a5
20404058:	8642                	mv	a2,a6
2040405a:	fe842503          	lw	a0,-24(s0)
2040405e:	334d                	jal	20403e00 <__metal_clint0_mtime_set>
20404060:	fe042623          	sw	zero,-20(s0)
20404064:	a059                	j	204040ea <__metal_driver_riscv_clint0_command_request+0x106>
20404066:	fd442783          	lw	a5,-44(s0)
2040406a:	c3d1                	beqz	a5,204040ee <__metal_driver_riscv_clint0_command_request+0x10a>
2040406c:	fd442783          	lw	a5,-44(s0)
20404070:	439c                	lw	a5,0(a5)
20404072:	fef42223          	sw	a5,-28(s0)
20404076:	fe842783          	lw	a5,-24(s0)
2040407a:	479c                	lw	a5,8(a5)
2040407c:	fe442703          	lw	a4,-28(s0)
20404080:	070a                	slli	a4,a4,0x2
20404082:	97ba                	add	a5,a5,a4
20404084:	0007a023          	sw	zero,0(a5)
20404088:	fe042623          	sw	zero,-20(s0)
2040408c:	a08d                	j	204040ee <__metal_driver_riscv_clint0_command_request+0x10a>
2040408e:	fd442783          	lw	a5,-44(s0)
20404092:	c3a5                	beqz	a5,204040f2 <__metal_driver_riscv_clint0_command_request+0x10e>
20404094:	fd442783          	lw	a5,-44(s0)
20404098:	439c                	lw	a5,0(a5)
2040409a:	fef42223          	sw	a5,-28(s0)
2040409e:	fe842783          	lw	a5,-24(s0)
204040a2:	479c                	lw	a5,8(a5)
204040a4:	fe442703          	lw	a4,-28(s0)
204040a8:	070a                	slli	a4,a4,0x2
204040aa:	97ba                	add	a5,a5,a4
204040ac:	873e                	mv	a4,a5
204040ae:	4785                	li	a5,1
204040b0:	c31c                	sw	a5,0(a4)
204040b2:	fe042623          	sw	zero,-20(s0)
204040b6:	a835                	j	204040f2 <__metal_driver_riscv_clint0_command_request+0x10e>
204040b8:	fe042623          	sw	zero,-20(s0)
204040bc:	fd442783          	lw	a5,-44(s0)
204040c0:	cb9d                	beqz	a5,204040f6 <__metal_driver_riscv_clint0_command_request+0x112>
204040c2:	fd442783          	lw	a5,-44(s0)
204040c6:	439c                	lw	a5,0(a5)
204040c8:	fef42223          	sw	a5,-28(s0)
204040cc:	fe842783          	lw	a5,-24(s0)
204040d0:	479c                	lw	a5,8(a5)
204040d2:	fe442703          	lw	a4,-28(s0)
204040d6:	070a                	slli	a4,a4,0x2
204040d8:	97ba                	add	a5,a5,a4
204040da:	439c                	lw	a5,0(a5)
204040dc:	fef42623          	sw	a5,-20(s0)
204040e0:	a819                	j	204040f6 <__metal_driver_riscv_clint0_command_request+0x112>
204040e2:	0001                	nop
204040e4:	a811                	j	204040f8 <__metal_driver_riscv_clint0_command_request+0x114>
204040e6:	0001                	nop
204040e8:	a801                	j	204040f8 <__metal_driver_riscv_clint0_command_request+0x114>
204040ea:	0001                	nop
204040ec:	a031                	j	204040f8 <__metal_driver_riscv_clint0_command_request+0x114>
204040ee:	0001                	nop
204040f0:	a021                	j	204040f8 <__metal_driver_riscv_clint0_command_request+0x114>
204040f2:	0001                	nop
204040f4:	a011                	j	204040f8 <__metal_driver_riscv_clint0_command_request+0x114>
204040f6:	0001                	nop
204040f8:	fec42783          	lw	a5,-20(s0)
204040fc:	853e                	mv	a0,a5
204040fe:	50b2                	lw	ra,44(sp)
20404100:	5422                	lw	s0,40(sp)
20404102:	6145                	addi	sp,sp,48
20404104:	8082                	ret

20404106 <__metal_driver_cpu_get>:
20404106:	1101                	addi	sp,sp,-32
20404108:	ce22                	sw	s0,28(sp)
2040410a:	1000                	addi	s0,sp,32
2040410c:	fea42623          	sw	a0,-20(s0)
20404110:	fec42783          	lw	a5,-20(s0)
20404114:	00f04a63          	bgtz	a5,20404128 <__metal_driver_cpu_get+0x22>
20404118:	fec42703          	lw	a4,-20(s0)
2040411c:	070a                	slli	a4,a4,0x2
2040411e:	81418793          	addi	a5,gp,-2028 # 8000099c <__metal_cpu_table>
20404122:	97ba                	add	a5,a5,a4
20404124:	439c                	lw	a5,0(a5)
20404126:	a011                	j	2040412a <__metal_driver_cpu_get+0x24>
20404128:	4781                	li	a5,0
2040412a:	853e                	mv	a0,a5
2040412c:	4472                	lw	s0,28(sp)
2040412e:	6105                	addi	sp,sp,32
20404130:	8082                	ret

20404132 <__metal_myhart_id>:
20404132:	1101                	addi	sp,sp,-32
20404134:	ce22                	sw	s0,28(sp)
20404136:	1000                	addi	s0,sp,32
20404138:	f14027f3          	csrr	a5,mhartid
2040413c:	fef42623          	sw	a5,-20(s0)
20404140:	fec42783          	lw	a5,-20(s0)
20404144:	853e                	mv	a0,a5
20404146:	4472                	lw	s0,28(sp)
20404148:	6105                	addi	sp,sp,32
2040414a:	8082                	ret

2040414c <__metal_interrupt_global_enable>:
2040414c:	1101                	addi	sp,sp,-32
2040414e:	ce22                	sw	s0,28(sp)
20404150:	1000                	addi	s0,sp,32
20404152:	47a1                	li	a5,8
20404154:	3007a7f3          	csrrs	a5,mstatus,a5
20404158:	fef42623          	sw	a5,-20(s0)
2040415c:	0001                	nop
2040415e:	4472                	lw	s0,28(sp)
20404160:	6105                	addi	sp,sp,32
20404162:	8082                	ret

20404164 <__metal_interrupt_global_disable>:
20404164:	1101                	addi	sp,sp,-32
20404166:	ce22                	sw	s0,28(sp)
20404168:	1000                	addi	s0,sp,32
2040416a:	47a1                	li	a5,8
2040416c:	3007b7f3          	csrrc	a5,mstatus,a5
20404170:	fef42623          	sw	a5,-20(s0)
20404174:	0001                	nop
20404176:	4472                	lw	s0,28(sp)
20404178:	6105                	addi	sp,sp,32
2040417a:	8082                	ret

2040417c <__metal_interrupt_software_enable>:
2040417c:	1101                	addi	sp,sp,-32
2040417e:	ce22                	sw	s0,28(sp)
20404180:	1000                	addi	s0,sp,32
20404182:	47a1                	li	a5,8
20404184:	3047a7f3          	csrrs	a5,mie,a5
20404188:	fef42623          	sw	a5,-20(s0)
2040418c:	0001                	nop
2040418e:	4472                	lw	s0,28(sp)
20404190:	6105                	addi	sp,sp,32
20404192:	8082                	ret

20404194 <__metal_interrupt_software_disable>:
20404194:	1101                	addi	sp,sp,-32
20404196:	ce22                	sw	s0,28(sp)
20404198:	1000                	addi	s0,sp,32
2040419a:	47a1                	li	a5,8
2040419c:	3047b7f3          	csrrc	a5,mie,a5
204041a0:	fef42623          	sw	a5,-20(s0)
204041a4:	0001                	nop
204041a6:	4472                	lw	s0,28(sp)
204041a8:	6105                	addi	sp,sp,32
204041aa:	8082                	ret

204041ac <__metal_interrupt_timer_enable>:
204041ac:	1101                	addi	sp,sp,-32
204041ae:	ce22                	sw	s0,28(sp)
204041b0:	1000                	addi	s0,sp,32
204041b2:	08000793          	li	a5,128
204041b6:	3047a7f3          	csrrs	a5,mie,a5
204041ba:	fef42623          	sw	a5,-20(s0)
204041be:	0001                	nop
204041c0:	4472                	lw	s0,28(sp)
204041c2:	6105                	addi	sp,sp,32
204041c4:	8082                	ret

204041c6 <__metal_interrupt_timer_disable>:
204041c6:	1101                	addi	sp,sp,-32
204041c8:	ce22                	sw	s0,28(sp)
204041ca:	1000                	addi	s0,sp,32
204041cc:	08000793          	li	a5,128
204041d0:	3047b7f3          	csrrc	a5,mie,a5
204041d4:	fef42623          	sw	a5,-20(s0)
204041d8:	0001                	nop
204041da:	4472                	lw	s0,28(sp)
204041dc:	6105                	addi	sp,sp,32
204041de:	8082                	ret

204041e0 <__metal_interrupt_external_enable>:
204041e0:	1101                	addi	sp,sp,-32
204041e2:	ce22                	sw	s0,28(sp)
204041e4:	1000                	addi	s0,sp,32
204041e6:	6785                	lui	a5,0x1
204041e8:	80078793          	addi	a5,a5,-2048 # 800 <__stack_size>
204041ec:	3047a7f3          	csrrs	a5,mie,a5
204041f0:	fef42623          	sw	a5,-20(s0)
204041f4:	0001                	nop
204041f6:	4472                	lw	s0,28(sp)
204041f8:	6105                	addi	sp,sp,32
204041fa:	8082                	ret

204041fc <__metal_interrupt_external_disable>:
204041fc:	1101                	addi	sp,sp,-32
204041fe:	ce22                	sw	s0,28(sp)
20404200:	1000                	addi	s0,sp,32
20404202:	6785                	lui	a5,0x1
20404204:	80078793          	addi	a5,a5,-2048 # 800 <__stack_size>
20404208:	3047b7f3          	csrrc	a5,mie,a5
2040420c:	fef42623          	sw	a5,-20(s0)
20404210:	0001                	nop
20404212:	4472                	lw	s0,28(sp)
20404214:	6105                	addi	sp,sp,32
20404216:	8082                	ret

20404218 <__metal_interrupt_local_enable>:
20404218:	7179                	addi	sp,sp,-48
2040421a:	d622                	sw	s0,44(sp)
2040421c:	1800                	addi	s0,sp,48
2040421e:	fca42e23          	sw	a0,-36(s0)
20404222:	fdc42783          	lw	a5,-36(s0)
20404226:	4705                	li	a4,1
20404228:	00f717b3          	sll	a5,a4,a5
2040422c:	fef42623          	sw	a5,-20(s0)
20404230:	fec42783          	lw	a5,-20(s0)
20404234:	3047a7f3          	csrrs	a5,mie,a5
20404238:	fef42423          	sw	a5,-24(s0)
2040423c:	0001                	nop
2040423e:	5432                	lw	s0,44(sp)
20404240:	6145                	addi	sp,sp,48
20404242:	8082                	ret

20404244 <__metal_interrupt_local_disable>:
20404244:	7179                	addi	sp,sp,-48
20404246:	d622                	sw	s0,44(sp)
20404248:	1800                	addi	s0,sp,48
2040424a:	fca42e23          	sw	a0,-36(s0)
2040424e:	fdc42783          	lw	a5,-36(s0)
20404252:	4705                	li	a4,1
20404254:	00f717b3          	sll	a5,a4,a5
20404258:	fef42623          	sw	a5,-20(s0)
2040425c:	fec42783          	lw	a5,-20(s0)
20404260:	3047b7f3          	csrrc	a5,mie,a5
20404264:	fef42423          	sw	a5,-24(s0)
20404268:	0001                	nop
2040426a:	5432                	lw	s0,44(sp)
2040426c:	6145                	addi	sp,sp,48
2040426e:	8082                	ret

20404270 <__metal_default_exception_handler>:
20404270:	1101                	addi	sp,sp,-32
20404272:	ce06                	sw	ra,28(sp)
20404274:	cc22                	sw	s0,24(sp)
20404276:	1000                	addi	s0,sp,32
20404278:	fea42623          	sw	a0,-20(s0)
2040427c:	feb42423          	sw	a1,-24(s0)
20404280:	06400513          	li	a0,100
20404284:	580010ef          	jal	ra,20405804 <metal_shutdown>

20404288 <__metal_default_interrupt_handler>:
20404288:	1101                	addi	sp,sp,-32
2040428a:	ce06                	sw	ra,28(sp)
2040428c:	cc22                	sw	s0,24(sp)
2040428e:	1000                	addi	s0,sp,32
20404290:	fea42623          	sw	a0,-20(s0)
20404294:	feb42423          	sw	a1,-24(s0)
20404298:	0c800513          	li	a0,200
2040429c:	568010ef          	jal	ra,20405804 <metal_shutdown>

204042a0 <__metal_default_sw_handler>:
204042a0:	7179                	addi	sp,sp,-48
204042a2:	d606                	sw	ra,44(sp)
204042a4:	d422                	sw	s0,40(sp)
204042a6:	1800                	addi	s0,sp,48
204042a8:	fca42e23          	sw	a0,-36(s0)
204042ac:	fcb42c23          	sw	a1,-40(s0)
204042b0:	3549                	jal	20404132 <__metal_myhart_id>
204042b2:	872a                	mv	a4,a0
204042b4:	070a                	slli	a4,a4,0x2
204042b6:	81418793          	addi	a5,gp,-2028 # 8000099c <__metal_cpu_table>
204042ba:	97ba                	add	a5,a5,a4
204042bc:	439c                	lw	a5,0(a5)
204042be:	fef42623          	sw	a5,-20(s0)
204042c2:	342027f3          	csrr	a5,mcause
204042c6:	fef42423          	sw	a5,-24(s0)
204042ca:	fec42783          	lw	a5,-20(s0)
204042ce:	c795                	beqz	a5,204042fa <__metal_default_sw_handler+0x5a>
204042d0:	fec42783          	lw	a5,-20(s0)
204042d4:	47dc                	lw	a5,12(a5)
204042d6:	fef42223          	sw	a5,-28(s0)
204042da:	fe842783          	lw	a5,-24(s0)
204042de:	3ff7f793          	andi	a5,a5,1023
204042e2:	fe442703          	lw	a4,-28(s0)
204042e6:	0e478793          	addi	a5,a5,228
204042ea:	078a                	slli	a5,a5,0x2
204042ec:	97ba                	add	a5,a5,a4
204042ee:	439c                	lw	a5,0(a5)
204042f0:	fdc42583          	lw	a1,-36(s0)
204042f4:	fec42503          	lw	a0,-20(s0)
204042f8:	9782                	jalr	a5
204042fa:	0001                	nop
204042fc:	50b2                	lw	ra,44(sp)
204042fe:	5422                	lw	s0,40(sp)
20404300:	6145                	addi	sp,sp,48
20404302:	8082                	ret

20404304 <__metal_default_timer_handler>:
20404304:	7179                	addi	sp,sp,-48
20404306:	d606                	sw	ra,44(sp)
20404308:	d422                	sw	s0,40(sp)
2040430a:	1800                	addi	s0,sp,48
2040430c:	fca42e23          	sw	a0,-36(s0)
20404310:	fcb42c23          	sw	a1,-40(s0)
20404314:	3d39                	jal	20404132 <__metal_myhart_id>
20404316:	87aa                	mv	a5,a0
20404318:	853e                	mv	a0,a5
2040431a:	33f5                	jal	20404106 <__metal_driver_cpu_get>
2040431c:	fea42623          	sw	a0,-20(s0)
20404320:	fec42503          	lw	a0,-20(s0)
20404324:	7ae000ef          	jal	ra,20404ad2 <__metal_driver_cpu_mtime_get>
20404328:	fea42023          	sw	a0,-32(s0)
2040432c:	feb42223          	sw	a1,-28(s0)
20404330:	fe042783          	lw	a5,-32(s0)
20404334:	fe442803          	lw	a6,-28(s0)
20404338:	45a9                	li	a1,10
2040433a:	4601                	li	a2,0
2040433c:	00b786b3          	add	a3,a5,a1
20404340:	8536                	mv	a0,a3
20404342:	00f53533          	sltu	a0,a0,a5
20404346:	00c80733          	add	a4,a6,a2
2040434a:	00e507b3          	add	a5,a0,a4
2040434e:	873e                	mv	a4,a5
20404350:	87b6                	mv	a5,a3
20404352:	883a                	mv	a6,a4
20404354:	85be                	mv	a1,a5
20404356:	8642                	mv	a2,a6
20404358:	fec42503          	lw	a0,-20(s0)
2040435c:	7e4000ef          	jal	ra,20404b40 <__metal_driver_cpu_mtimecmp_set>
20404360:	0001                	nop
20404362:	50b2                	lw	ra,44(sp)
20404364:	5422                	lw	s0,40(sp)
20404366:	6145                	addi	sp,sp,48
20404368:	8082                	ret
	...

20404380 <__metal_exception_handler>:
20404380:	7119                	addi	sp,sp,-128
20404382:	de86                	sw	ra,124(sp)
20404384:	dc96                	sw	t0,120(sp)
20404386:	da9a                	sw	t1,116(sp)
20404388:	d89e                	sw	t2,112(sp)
2040438a:	d6a2                	sw	s0,108(sp)
2040438c:	d4aa                	sw	a0,104(sp)
2040438e:	d2ae                	sw	a1,100(sp)
20404390:	d0b2                	sw	a2,96(sp)
20404392:	ceb6                	sw	a3,92(sp)
20404394:	ccba                	sw	a4,88(sp)
20404396:	cabe                	sw	a5,84(sp)
20404398:	c8c2                	sw	a6,80(sp)
2040439a:	c6c6                	sw	a7,76(sp)
2040439c:	c4f2                	sw	t3,72(sp)
2040439e:	c2f6                	sw	t4,68(sp)
204043a0:	c0fa                	sw	t5,64(sp)
204043a2:	de7e                	sw	t6,60(sp)
204043a4:	0100                	addi	s0,sp,128
204043a6:	3371                	jal	20404132 <__metal_myhart_id>
204043a8:	872a                	mv	a4,a0
204043aa:	070a                	slli	a4,a4,0x2
204043ac:	81418793          	addi	a5,gp,-2028 # 8000099c <__metal_cpu_table>
204043b0:	97ba                	add	a5,a5,a4
204043b2:	439c                	lw	a5,0(a5)
204043b4:	faf42623          	sw	a5,-84(s0)
204043b8:	342027f3          	csrr	a5,mcause
204043bc:	faf42423          	sw	a5,-88(s0)
204043c0:	341027f3          	csrr	a5,mepc
204043c4:	faf42223          	sw	a5,-92(s0)
204043c8:	343027f3          	csrr	a5,mtval
204043cc:	faf42023          	sw	a5,-96(s0)
204043d0:	305027f3          	csrr	a5,mtvec
204043d4:	f8f42e23          	sw	a5,-100(s0)
204043d8:	fac42783          	lw	a5,-84(s0)
204043dc:	c3f9                	beqz	a5,204044a2 <__metal_exception_handler+0x122>
204043de:	fac42783          	lw	a5,-84(s0)
204043e2:	47dc                	lw	a5,12(a5)
204043e4:	f8f42c23          	sw	a5,-104(s0)
204043e8:	fa842783          	lw	a5,-88(s0)
204043ec:	3ff7f793          	andi	a5,a5,1023
204043f0:	f8f42a23          	sw	a5,-108(s0)
204043f4:	fa842783          	lw	a5,-88(s0)
204043f8:	0807d763          	bgez	a5,20404486 <__metal_exception_handler+0x106>
204043fc:	f9442703          	lw	a4,-108(s0)
20404400:	47bd                	li	a5,15
20404402:	00e7d763          	bge	a5,a4,20404410 <__metal_exception_handler+0x90>
20404406:	f9c42783          	lw	a5,-100(s0)
2040440a:	03f7f793          	andi	a5,a5,63
2040440e:	ef9d                	bnez	a5,2040444c <__metal_exception_handler+0xcc>
20404410:	f9842683          	lw	a3,-104(s0)
20404414:	f9442703          	lw	a4,-108(s0)
20404418:	87ba                	mv	a5,a4
2040441a:	0786                	slli	a5,a5,0x1
2040441c:	97ba                	add	a5,a5,a4
2040441e:	078e                	slli	a5,a5,0x3
20404420:	97b6                	add	a5,a5,a3
20404422:	0a07a783          	lw	a5,160(a5)
20404426:	f8f42623          	sw	a5,-116(s0)
2040442a:	f9842683          	lw	a3,-104(s0)
2040442e:	f9442703          	lw	a4,-108(s0)
20404432:	87ba                	mv	a5,a4
20404434:	0786                	slli	a5,a5,0x1
20404436:	97ba                	add	a5,a5,a4
20404438:	078e                	slli	a5,a5,0x3
2040443a:	97b6                	add	a5,a5,a3
2040443c:	0987a783          	lw	a5,152(a5)
20404440:	f8c42583          	lw	a1,-116(s0)
20404444:	f9442503          	lw	a0,-108(s0)
20404448:	9782                	jalr	a5
2040444a:	a8a1                	j	204044a2 <__metal_exception_handler+0x122>
2040444c:	f9c42783          	lw	a5,-100(s0)
20404450:	03f7f713          	andi	a4,a5,63
20404454:	4789                	li	a5,2
20404456:	04f71663          	bne	a4,a5,204044a2 <__metal_exception_handler+0x122>
2040445a:	307027f3          	csrr	a5,0x307
2040445e:	f8f42823          	sw	a5,-112(s0)
20404462:	f9842783          	lw	a5,-104(s0)
20404466:	0e47a783          	lw	a5,228(a5)
2040446a:	f8f42623          	sw	a5,-116(s0)
2040446e:	f9042783          	lw	a5,-112(s0)
20404472:	f8f42423          	sw	a5,-120(s0)
20404476:	f8842783          	lw	a5,-120(s0)
2040447a:	f8c42583          	lw	a1,-116(s0)
2040447e:	f9442503          	lw	a0,-108(s0)
20404482:	9782                	jalr	a5
20404484:	a839                	j	204044a2 <__metal_exception_handler+0x122>
20404486:	f9842703          	lw	a4,-104(s0)
2040448a:	f9442783          	lw	a5,-108(s0)
2040448e:	0e478793          	addi	a5,a5,228
20404492:	078a                	slli	a5,a5,0x2
20404494:	97ba                	add	a5,a5,a4
20404496:	439c                	lw	a5,0(a5)
20404498:	f9442583          	lw	a1,-108(s0)
2040449c:	fac42503          	lw	a0,-84(s0)
204044a0:	9782                	jalr	a5
204044a2:	50f6                	lw	ra,124(sp)
204044a4:	52e6                	lw	t0,120(sp)
204044a6:	5356                	lw	t1,116(sp)
204044a8:	53c6                	lw	t2,112(sp)
204044aa:	5436                	lw	s0,108(sp)
204044ac:	5526                	lw	a0,104(sp)
204044ae:	5596                	lw	a1,100(sp)
204044b0:	5606                	lw	a2,96(sp)
204044b2:	46f6                	lw	a3,92(sp)
204044b4:	4766                	lw	a4,88(sp)
204044b6:	47d6                	lw	a5,84(sp)
204044b8:	4846                	lw	a6,80(sp)
204044ba:	48b6                	lw	a7,76(sp)
204044bc:	4e26                	lw	t3,72(sp)
204044be:	4e96                	lw	t4,68(sp)
204044c0:	4f06                	lw	t5,64(sp)
204044c2:	5ff2                	lw	t6,60(sp)
204044c4:	6109                	addi	sp,sp,128
204044c6:	30200073          	mret
	...

204044f8 <__metal_controller_interrupt_vector>:
204044f8:	7179                	addi	sp,sp,-48
204044fa:	d622                	sw	s0,44(sp)
204044fc:	1800                	addi	s0,sp,48
204044fe:	fca42e23          	sw	a0,-36(s0)
20404502:	fcb42c23          	sw	a1,-40(s0)
20404506:	305027f3          	csrr	a5,mtvec
2040450a:	fef42623          	sw	a5,-20(s0)
2040450e:	fec42783          	lw	a5,-20(s0)
20404512:	fc07f793          	andi	a5,a5,-64
20404516:	fef42623          	sw	a5,-20(s0)
2040451a:	fd842783          	lw	a5,-40(s0)
2040451e:	fef42423          	sw	a5,-24(s0)
20404522:	fdc42703          	lw	a4,-36(s0)
20404526:	4785                	li	a5,1
20404528:	04f70a63          	beq	a4,a5,2040457c <__metal_controller_interrupt_vector+0x84>
2040452c:	fdc42783          	lw	a5,-36(s0)
20404530:	cfa9                	beqz	a5,2040458a <__metal_controller_interrupt_vector+0x92>
20404532:	fdc42703          	lw	a4,-36(s0)
20404536:	4789                	li	a5,2
20404538:	00f70863          	beq	a4,a5,20404548 <__metal_controller_interrupt_vector+0x50>
2040453c:	fdc42703          	lw	a4,-36(s0)
20404540:	478d                	li	a5,3
20404542:	02f70063          	beq	a4,a5,20404562 <__metal_controller_interrupt_vector+0x6a>
20404546:	a881                	j	20404596 <__metal_controller_interrupt_vector+0x9e>
20404548:	fe842783          	lw	a5,-24(s0)
2040454c:	0027e793          	ori	a5,a5,2
20404550:	30779073          	csrw	0x307,a5
20404554:	fec42783          	lw	a5,-20(s0)
20404558:	0027e793          	ori	a5,a5,2
2040455c:	30579073          	csrw	mtvec,a5
20404560:	a81d                	j	20404596 <__metal_controller_interrupt_vector+0x9e>
20404562:	fe842783          	lw	a5,-24(s0)
20404566:	0037e793          	ori	a5,a5,3
2040456a:	30779073          	csrw	0x307,a5
2040456e:	fec42783          	lw	a5,-20(s0)
20404572:	0037e793          	ori	a5,a5,3
20404576:	30579073          	csrw	mtvec,a5
2040457a:	a831                	j	20404596 <__metal_controller_interrupt_vector+0x9e>
2040457c:	fe842783          	lw	a5,-24(s0)
20404580:	0017e793          	ori	a5,a5,1
20404584:	30579073          	csrw	mtvec,a5
20404588:	a039                	j	20404596 <__metal_controller_interrupt_vector+0x9e>
2040458a:	fe842783          	lw	a5,-24(s0)
2040458e:	9bf1                	andi	a5,a5,-4
20404590:	30579073          	csrw	mtvec,a5
20404594:	0001                	nop
20404596:	0001                	nop
20404598:	5432                	lw	s0,44(sp)
2040459a:	6145                	addi	sp,sp,48
2040459c:	8082                	ret

2040459e <__metal_valid_interrupt_id>:
2040459e:	1101                	addi	sp,sp,-32
204045a0:	ce22                	sw	s0,28(sp)
204045a2:	1000                	addi	s0,sp,32
204045a4:	fea42623          	sw	a0,-20(s0)
204045a8:	fec42783          	lw	a5,-20(s0)
204045ac:	17f5                	addi	a5,a5,-3
204045ae:	4771                	li	a4,28
204045b0:	00f76d63          	bltu	a4,a5,204045ca <__metal_valid_interrupt_id+0x2c>
204045b4:	00279713          	slli	a4,a5,0x2
204045b8:	204067b7          	lui	a5,0x20406
204045bc:	26878793          	addi	a5,a5,616 # 20406268 <__metal_driver_vtable_sifive_uart0+0x34>
204045c0:	97ba                	add	a5,a5,a4
204045c2:	439c                	lw	a5,0(a5)
204045c4:	8782                	jr	a5
204045c6:	4785                	li	a5,1
204045c8:	a019                	j	204045ce <__metal_valid_interrupt_id+0x30>
204045ca:	0001                	nop
204045cc:	4781                	li	a5,0
204045ce:	853e                	mv	a0,a5
204045d0:	4472                	lw	s0,28(sp)
204045d2:	6105                	addi	sp,sp,32
204045d4:	8082                	ret

204045d6 <__metal_local_interrupt_enable>:
204045d6:	7179                	addi	sp,sp,-48
204045d8:	d606                	sw	ra,44(sp)
204045da:	d422                	sw	s0,40(sp)
204045dc:	1800                	addi	s0,sp,48
204045de:	fca42e23          	sw	a0,-36(s0)
204045e2:	fcb42c23          	sw	a1,-40(s0)
204045e6:	fcc42a23          	sw	a2,-44(s0)
204045ea:	fe042623          	sw	zero,-20(s0)
204045ee:	fdc42783          	lw	a5,-36(s0)
204045f2:	e399                	bnez	a5,204045f8 <__metal_local_interrupt_enable+0x22>
204045f4:	57fd                	li	a5,-1
204045f6:	a071                	j	20404682 <__metal_local_interrupt_enable+0xac>
204045f8:	fd842703          	lw	a4,-40(s0)
204045fc:	47fd                	li	a5,31
204045fe:	08e7e063          	bltu	a5,a4,2040467e <__metal_local_interrupt_enable+0xa8>
20404602:	fd842783          	lw	a5,-40(s0)
20404606:	00279713          	slli	a4,a5,0x2
2040460a:	204067b7          	lui	a5,0x20406
2040460e:	2dc78793          	addi	a5,a5,732 # 204062dc <__metal_driver_vtable_sifive_uart0+0xa8>
20404612:	97ba                	add	a5,a5,a4
20404614:	439c                	lw	a5,0(a5)
20404616:	8782                	jr	a5
20404618:	fd442783          	lw	a5,-44(s0)
2040461c:	c781                	beqz	a5,20404624 <__metal_local_interrupt_enable+0x4e>
2040461e:	b2fff0ef          	jal	ra,2040414c <__metal_interrupt_global_enable>
20404622:	a8b1                	j	2040467e <__metal_local_interrupt_enable+0xa8>
20404624:	b41ff0ef          	jal	ra,20404164 <__metal_interrupt_global_disable>
20404628:	a899                	j	2040467e <__metal_local_interrupt_enable+0xa8>
2040462a:	fd442783          	lw	a5,-44(s0)
2040462e:	c781                	beqz	a5,20404636 <__metal_local_interrupt_enable+0x60>
20404630:	b4dff0ef          	jal	ra,2040417c <__metal_interrupt_software_enable>
20404634:	a0a9                	j	2040467e <__metal_local_interrupt_enable+0xa8>
20404636:	b5fff0ef          	jal	ra,20404194 <__metal_interrupt_software_disable>
2040463a:	a091                	j	2040467e <__metal_local_interrupt_enable+0xa8>
2040463c:	fd442783          	lw	a5,-44(s0)
20404640:	c781                	beqz	a5,20404648 <__metal_local_interrupt_enable+0x72>
20404642:	b6bff0ef          	jal	ra,204041ac <__metal_interrupt_timer_enable>
20404646:	a825                	j	2040467e <__metal_local_interrupt_enable+0xa8>
20404648:	b7fff0ef          	jal	ra,204041c6 <__metal_interrupt_timer_disable>
2040464c:	a80d                	j	2040467e <__metal_local_interrupt_enable+0xa8>
2040464e:	fd442783          	lw	a5,-44(s0)
20404652:	c781                	beqz	a5,2040465a <__metal_local_interrupt_enable+0x84>
20404654:	b8dff0ef          	jal	ra,204041e0 <__metal_interrupt_external_enable>
20404658:	a01d                	j	2040467e <__metal_local_interrupt_enable+0xa8>
2040465a:	ba3ff0ef          	jal	ra,204041fc <__metal_interrupt_external_disable>
2040465e:	a005                	j	2040467e <__metal_local_interrupt_enable+0xa8>
20404660:	fd442783          	lw	a5,-44(s0)
20404664:	c799                	beqz	a5,20404672 <__metal_local_interrupt_enable+0x9c>
20404666:	fd842783          	lw	a5,-40(s0)
2040466a:	853e                	mv	a0,a5
2040466c:	badff0ef          	jal	ra,20404218 <__metal_interrupt_local_enable>
20404670:	a031                	j	2040467c <__metal_local_interrupt_enable+0xa6>
20404672:	fd842783          	lw	a5,-40(s0)
20404676:	853e                	mv	a0,a5
20404678:	bcdff0ef          	jal	ra,20404244 <__metal_interrupt_local_disable>
2040467c:	0001                	nop
2040467e:	fec42783          	lw	a5,-20(s0)
20404682:	853e                	mv	a0,a5
20404684:	50b2                	lw	ra,44(sp)
20404686:	5422                	lw	s0,40(sp)
20404688:	6145                	addi	sp,sp,48
2040468a:	8082                	ret

2040468c <__metal_exception_register>:
2040468c:	7179                	addi	sp,sp,-48
2040468e:	d622                	sw	s0,44(sp)
20404690:	1800                	addi	s0,sp,48
20404692:	fca42e23          	sw	a0,-36(s0)
20404696:	fcb42c23          	sw	a1,-40(s0)
2040469a:	fcc42a23          	sw	a2,-44(s0)
2040469e:	fdc42783          	lw	a5,-36(s0)
204046a2:	fef42623          	sw	a5,-20(s0)
204046a6:	fd842703          	lw	a4,-40(s0)
204046aa:	47ad                	li	a5,11
204046ac:	02e7c263          	blt	a5,a4,204046d0 <__metal_exception_register+0x44>
204046b0:	fd442783          	lw	a5,-44(s0)
204046b4:	cf91                	beqz	a5,204046d0 <__metal_exception_register+0x44>
204046b6:	fec42703          	lw	a4,-20(s0)
204046ba:	fd842783          	lw	a5,-40(s0)
204046be:	0e478793          	addi	a5,a5,228
204046c2:	078a                	slli	a5,a5,0x2
204046c4:	97ba                	add	a5,a5,a4
204046c6:	fd442703          	lw	a4,-44(s0)
204046ca:	c398                	sw	a4,0(a5)
204046cc:	4781                	li	a5,0
204046ce:	a011                	j	204046d2 <__metal_exception_register+0x46>
204046d0:	57fd                	li	a5,-1
204046d2:	853e                	mv	a0,a5
204046d4:	5432                	lw	s0,44(sp)
204046d6:	6145                	addi	sp,sp,48
204046d8:	8082                	ret

204046da <__metal_driver_riscv_cpu_controller_interrupt_init>:
204046da:	7179                	addi	sp,sp,-48
204046dc:	d606                	sw	ra,44(sp)
204046de:	d422                	sw	s0,40(sp)
204046e0:	1800                	addi	s0,sp,48
204046e2:	fca42e23          	sw	a0,-36(s0)
204046e6:	fdc42783          	lw	a5,-36(s0)
204046ea:	fef42223          	sw	a5,-28(s0)
204046ee:	fe442783          	lw	a5,-28(s0)
204046f2:	479c                	lw	a5,8(a5)
204046f4:	ebe1                	bnez	a5,204047c4 <__metal_driver_riscv_cpu_controller_interrupt_init+0xea>
204046f6:	fe042623          	sw	zero,-20(s0)
204046fa:	a0b9                	j	20404748 <__metal_driver_riscv_cpu_controller_interrupt_init+0x6e>
204046fc:	fe442683          	lw	a3,-28(s0)
20404700:	fec42703          	lw	a4,-20(s0)
20404704:	87ba                	mv	a5,a4
20404706:	0786                	slli	a5,a5,0x1
20404708:	97ba                	add	a5,a5,a4
2040470a:	078e                	slli	a5,a5,0x3
2040470c:	97b6                	add	a5,a5,a3
2040470e:	0807ac23          	sw	zero,152(a5)
20404712:	fe442683          	lw	a3,-28(s0)
20404716:	fec42703          	lw	a4,-20(s0)
2040471a:	87ba                	mv	a5,a4
2040471c:	0786                	slli	a5,a5,0x1
2040471e:	97ba                	add	a5,a5,a4
20404720:	078e                	slli	a5,a5,0x3
20404722:	97b6                	add	a5,a5,a3
20404724:	0807ae23          	sw	zero,156(a5)
20404728:	fe442683          	lw	a3,-28(s0)
2040472c:	fec42703          	lw	a4,-20(s0)
20404730:	87ba                	mv	a5,a4
20404732:	0786                	slli	a5,a5,0x1
20404734:	97ba                	add	a5,a5,a4
20404736:	078e                	slli	a5,a5,0x3
20404738:	97b6                	add	a5,a5,a3
2040473a:	0a07a023          	sw	zero,160(a5)
2040473e:	fec42783          	lw	a5,-20(s0)
20404742:	0785                	addi	a5,a5,1
20404744:	fef42623          	sw	a5,-20(s0)
20404748:	fec42703          	lw	a4,-20(s0)
2040474c:	47fd                	li	a5,31
2040474e:	fae7d7e3          	bge	a5,a4,204046fc <__metal_driver_riscv_cpu_controller_interrupt_init+0x22>
20404752:	fe042423          	sw	zero,-24(s0)
20404756:	a01d                	j	2040477c <__metal_driver_riscv_cpu_controller_interrupt_init+0xa2>
20404758:	fe442703          	lw	a4,-28(s0)
2040475c:	fe842783          	lw	a5,-24(s0)
20404760:	0e478793          	addi	a5,a5,228
20404764:	078a                	slli	a5,a5,0x2
20404766:	97ba                	add	a5,a5,a4
20404768:	20404737          	lui	a4,0x20404
2040476c:	27070713          	addi	a4,a4,624 # 20404270 <__metal_default_exception_handler>
20404770:	c398                	sw	a4,0(a5)
20404772:	fe842783          	lw	a5,-24(s0)
20404776:	0785                	addi	a5,a5,1
20404778:	fef42423          	sw	a5,-24(s0)
2040477c:	fe842703          	lw	a4,-24(s0)
20404780:	47ad                	li	a5,11
20404782:	fce7dbe3          	bge	a5,a4,20404758 <__metal_driver_riscv_cpu_controller_interrupt_init+0x7e>
20404786:	204047b7          	lui	a5,0x20404
2040478a:	38078593          	addi	a1,a5,896 # 20404380 <__metal_exception_handler>
2040478e:	4501                	li	a0,0
20404790:	33a5                	jal	204044f8 <__metal_controller_interrupt_vector>
20404792:	301027f3          	csrr	a5,misa
20404796:	fef42023          	sw	a5,-32(s0)
2040479a:	fe042703          	lw	a4,-32(s0)
2040479e:	67c1                	lui	a5,0x10
204047a0:	02878793          	addi	a5,a5,40 # 10028 <__stack_size+0xf828>
204047a4:	8ff9                	and	a5,a5,a4
204047a6:	cb99                	beqz	a5,204047bc <__metal_driver_riscv_cpu_controller_interrupt_init+0xe2>
204047a8:	300027f3          	csrr	a5,mstatus
204047ac:	fef42023          	sw	a5,-32(s0)
204047b0:	fe042703          	lw	a4,-32(s0)
204047b4:	6789                	lui	a5,0x2
204047b6:	8fd9                	or	a5,a5,a4
204047b8:	30079073          	csrw	mstatus,a5
204047bc:	fe442783          	lw	a5,-28(s0)
204047c0:	4705                	li	a4,1
204047c2:	c798                	sw	a4,8(a5)
204047c4:	0001                	nop
204047c6:	50b2                	lw	ra,44(sp)
204047c8:	5422                	lw	s0,40(sp)
204047ca:	6145                	addi	sp,sp,48
204047cc:	8082                	ret

204047ce <__metal_driver_riscv_cpu_controller_interrupt_register>:
204047ce:	7179                	addi	sp,sp,-48
204047d0:	d606                	sw	ra,44(sp)
204047d2:	d422                	sw	s0,40(sp)
204047d4:	1800                	addi	s0,sp,48
204047d6:	fca42e23          	sw	a0,-36(s0)
204047da:	fcb42c23          	sw	a1,-40(s0)
204047de:	fcc42a23          	sw	a2,-44(s0)
204047e2:	fcd42823          	sw	a3,-48(s0)
204047e6:	fe042623          	sw	zero,-20(s0)
204047ea:	fdc42783          	lw	a5,-36(s0)
204047ee:	fef42423          	sw	a5,-24(s0)
204047f2:	fd842503          	lw	a0,-40(s0)
204047f6:	3365                	jal	2040459e <__metal_valid_interrupt_id>
204047f8:	87aa                	mv	a5,a0
204047fa:	e399                	bnez	a5,20404800 <__metal_driver_riscv_cpu_controller_interrupt_register+0x32>
204047fc:	57d5                	li	a5,-11
204047fe:	a239                	j	2040490c <__metal_driver_riscv_cpu_controller_interrupt_register+0x13e>
20404800:	fd442783          	lw	a5,-44(s0)
20404804:	cf85                	beqz	a5,2040483c <__metal_driver_riscv_cpu_controller_interrupt_register+0x6e>
20404806:	fe842683          	lw	a3,-24(s0)
2040480a:	fd842703          	lw	a4,-40(s0)
2040480e:	87ba                	mv	a5,a4
20404810:	0786                	slli	a5,a5,0x1
20404812:	97ba                	add	a5,a5,a4
20404814:	078e                	slli	a5,a5,0x3
20404816:	97b6                	add	a5,a5,a3
20404818:	fd442703          	lw	a4,-44(s0)
2040481c:	08e7ac23          	sw	a4,152(a5) # 2098 <__stack_size+0x1898>
20404820:	fe842683          	lw	a3,-24(s0)
20404824:	fd842703          	lw	a4,-40(s0)
20404828:	87ba                	mv	a5,a4
2040482a:	0786                	slli	a5,a5,0x1
2040482c:	97ba                	add	a5,a5,a4
2040482e:	078e                	slli	a5,a5,0x3
20404830:	97b6                	add	a5,a5,a3
20404832:	fd042703          	lw	a4,-48(s0)
20404836:	0ae7a023          	sw	a4,160(a5)
2040483a:	a0f9                	j	20404908 <__metal_driver_riscv_cpu_controller_interrupt_register+0x13a>
2040483c:	fd842783          	lw	a5,-40(s0)
20404840:	17f5                	addi	a5,a5,-3
20404842:	4771                	li	a4,28
20404844:	0cf76263          	bltu	a4,a5,20404908 <__metal_driver_riscv_cpu_controller_interrupt_register+0x13a>
20404848:	00279713          	slli	a4,a5,0x2
2040484c:	204067b7          	lui	a5,0x20406
20404850:	35c78793          	addi	a5,a5,860 # 2040635c <__metal_driver_vtable_sifive_uart0+0x128>
20404854:	97ba                	add	a5,a5,a4
20404856:	439c                	lw	a5,0(a5)
20404858:	8782                	jr	a5
2040485a:	fe842683          	lw	a3,-24(s0)
2040485e:	fd842703          	lw	a4,-40(s0)
20404862:	87ba                	mv	a5,a4
20404864:	0786                	slli	a5,a5,0x1
20404866:	97ba                	add	a5,a5,a4
20404868:	078e                	slli	a5,a5,0x3
2040486a:	97b6                	add	a5,a5,a3
2040486c:	20404737          	lui	a4,0x20404
20404870:	2a070713          	addi	a4,a4,672 # 204042a0 <__metal_default_sw_handler>
20404874:	08e7ac23          	sw	a4,152(a5)
20404878:	fe842683          	lw	a3,-24(s0)
2040487c:	fd842703          	lw	a4,-40(s0)
20404880:	87ba                	mv	a5,a4
20404882:	0786                	slli	a5,a5,0x1
20404884:	97ba                	add	a5,a5,a4
20404886:	078e                	slli	a5,a5,0x3
20404888:	97b6                	add	a5,a5,a3
2040488a:	fd042703          	lw	a4,-48(s0)
2040488e:	08e7ae23          	sw	a4,156(a5)
20404892:	a89d                	j	20404908 <__metal_driver_riscv_cpu_controller_interrupt_register+0x13a>
20404894:	fe842683          	lw	a3,-24(s0)
20404898:	fd842703          	lw	a4,-40(s0)
2040489c:	87ba                	mv	a5,a4
2040489e:	0786                	slli	a5,a5,0x1
204048a0:	97ba                	add	a5,a5,a4
204048a2:	078e                	slli	a5,a5,0x3
204048a4:	97b6                	add	a5,a5,a3
204048a6:	20404737          	lui	a4,0x20404
204048aa:	30470713          	addi	a4,a4,772 # 20404304 <__metal_default_timer_handler>
204048ae:	08e7ac23          	sw	a4,152(a5)
204048b2:	fe842683          	lw	a3,-24(s0)
204048b6:	fd842703          	lw	a4,-40(s0)
204048ba:	87ba                	mv	a5,a4
204048bc:	0786                	slli	a5,a5,0x1
204048be:	97ba                	add	a5,a5,a4
204048c0:	078e                	slli	a5,a5,0x3
204048c2:	97b6                	add	a5,a5,a3
204048c4:	fd042703          	lw	a4,-48(s0)
204048c8:	08e7ae23          	sw	a4,156(a5)
204048cc:	a835                	j	20404908 <__metal_driver_riscv_cpu_controller_interrupt_register+0x13a>
204048ce:	fe842683          	lw	a3,-24(s0)
204048d2:	fd842703          	lw	a4,-40(s0)
204048d6:	87ba                	mv	a5,a4
204048d8:	0786                	slli	a5,a5,0x1
204048da:	97ba                	add	a5,a5,a4
204048dc:	078e                	slli	a5,a5,0x3
204048de:	97b6                	add	a5,a5,a3
204048e0:	20404737          	lui	a4,0x20404
204048e4:	28870713          	addi	a4,a4,648 # 20404288 <__metal_default_interrupt_handler>
204048e8:	08e7ac23          	sw	a4,152(a5)
204048ec:	fe842683          	lw	a3,-24(s0)
204048f0:	fd842703          	lw	a4,-40(s0)
204048f4:	87ba                	mv	a5,a4
204048f6:	0786                	slli	a5,a5,0x1
204048f8:	97ba                	add	a5,a5,a4
204048fa:	078e                	slli	a5,a5,0x3
204048fc:	97b6                	add	a5,a5,a3
204048fe:	fd042703          	lw	a4,-48(s0)
20404902:	08e7ae23          	sw	a4,156(a5)
20404906:	0001                	nop
20404908:	fec42783          	lw	a5,-20(s0)
2040490c:	853e                	mv	a0,a5
2040490e:	50b2                	lw	ra,44(sp)
20404910:	5422                	lw	s0,40(sp)
20404912:	6145                	addi	sp,sp,48
20404914:	8082                	ret

20404916 <__metal_driver_riscv_cpu_controller_interrupt_enable>:
20404916:	1101                	addi	sp,sp,-32
20404918:	ce06                	sw	ra,28(sp)
2040491a:	cc22                	sw	s0,24(sp)
2040491c:	1000                	addi	s0,sp,32
2040491e:	fea42623          	sw	a0,-20(s0)
20404922:	feb42423          	sw	a1,-24(s0)
20404926:	fe842783          	lw	a5,-24(s0)
2040492a:	4605                	li	a2,1
2040492c:	85be                	mv	a1,a5
2040492e:	fec42503          	lw	a0,-20(s0)
20404932:	ca5ff0ef          	jal	ra,204045d6 <__metal_local_interrupt_enable>
20404936:	87aa                	mv	a5,a0
20404938:	853e                	mv	a0,a5
2040493a:	40f2                	lw	ra,28(sp)
2040493c:	4462                	lw	s0,24(sp)
2040493e:	6105                	addi	sp,sp,32
20404940:	8082                	ret

20404942 <__metal_driver_riscv_cpu_controller_interrupt_disable>:
20404942:	1101                	addi	sp,sp,-32
20404944:	ce06                	sw	ra,28(sp)
20404946:	cc22                	sw	s0,24(sp)
20404948:	1000                	addi	s0,sp,32
2040494a:	fea42623          	sw	a0,-20(s0)
2040494e:	feb42423          	sw	a1,-24(s0)
20404952:	fe842783          	lw	a5,-24(s0)
20404956:	4601                	li	a2,0
20404958:	85be                	mv	a1,a5
2040495a:	fec42503          	lw	a0,-20(s0)
2040495e:	c79ff0ef          	jal	ra,204045d6 <__metal_local_interrupt_enable>
20404962:	87aa                	mv	a5,a0
20404964:	853e                	mv	a0,a5
20404966:	40f2                	lw	ra,28(sp)
20404968:	4462                	lw	s0,24(sp)
2040496a:	6105                	addi	sp,sp,32
2040496c:	8082                	ret

2040496e <__metal_driver_riscv_cpu_controller_interrupt_enable_vector>:
2040496e:	7179                	addi	sp,sp,-48
20404970:	d606                	sw	ra,44(sp)
20404972:	d422                	sw	s0,40(sp)
20404974:	1800                	addi	s0,sp,48
20404976:	fca42e23          	sw	a0,-36(s0)
2040497a:	fcb42c23          	sw	a1,-40(s0)
2040497e:	fcc42a23          	sw	a2,-44(s0)
20404982:	fdc42783          	lw	a5,-36(s0)
20404986:	fef42623          	sw	a5,-20(s0)
2040498a:	fd842783          	lw	a5,-40(s0)
2040498e:	ef8d                	bnez	a5,204049c8 <__metal_driver_riscv_cpu_controller_interrupt_enable_vector+0x5a>
20404990:	fd442783          	lw	a5,-44(s0)
20404994:	eb99                	bnez	a5,204049aa <__metal_driver_riscv_cpu_controller_interrupt_enable_vector+0x3c>
20404996:	204047b7          	lui	a5,0x20404
2040499a:	38078593          	addi	a1,a5,896 # 20404380 <__metal_exception_handler>
2040499e:	fd442503          	lw	a0,-44(s0)
204049a2:	b57ff0ef          	jal	ra,204044f8 <__metal_controller_interrupt_vector>
204049a6:	4781                	li	a5,0
204049a8:	a00d                	j	204049ca <__metal_driver_riscv_cpu_controller_interrupt_enable_vector+0x5c>
204049aa:	fd442703          	lw	a4,-44(s0)
204049ae:	4785                	li	a5,1
204049b0:	00f71c63          	bne	a4,a5,204049c8 <__metal_driver_riscv_cpu_controller_interrupt_enable_vector+0x5a>
204049b4:	fec42783          	lw	a5,-20(s0)
204049b8:	07c1                	addi	a5,a5,16
204049ba:	85be                	mv	a1,a5
204049bc:	fd442503          	lw	a0,-44(s0)
204049c0:	b39ff0ef          	jal	ra,204044f8 <__metal_controller_interrupt_vector>
204049c4:	4781                	li	a5,0
204049c6:	a011                	j	204049ca <__metal_driver_riscv_cpu_controller_interrupt_enable_vector+0x5c>
204049c8:	57fd                	li	a5,-1
204049ca:	853e                	mv	a0,a5
204049cc:	50b2                	lw	ra,44(sp)
204049ce:	5422                	lw	s0,40(sp)
204049d0:	6145                	addi	sp,sp,48
204049d2:	8082                	ret

204049d4 <__metal_driver_riscv_cpu_controller_interrupt_disable_vector>:
204049d4:	7179                	addi	sp,sp,-48
204049d6:	d606                	sw	ra,44(sp)
204049d8:	d422                	sw	s0,40(sp)
204049da:	1800                	addi	s0,sp,48
204049dc:	fca42e23          	sw	a0,-36(s0)
204049e0:	fcb42c23          	sw	a1,-40(s0)
204049e4:	fdc42783          	lw	a5,-36(s0)
204049e8:	fef42623          	sw	a5,-20(s0)
204049ec:	fd842783          	lw	a5,-40(s0)
204049f0:	eb91                	bnez	a5,20404a04 <__metal_driver_riscv_cpu_controller_interrupt_disable_vector+0x30>
204049f2:	204047b7          	lui	a5,0x20404
204049f6:	38078593          	addi	a1,a5,896 # 20404380 <__metal_exception_handler>
204049fa:	4501                	li	a0,0
204049fc:	afdff0ef          	jal	ra,204044f8 <__metal_controller_interrupt_vector>
20404a00:	4781                	li	a5,0
20404a02:	a011                	j	20404a06 <__metal_driver_riscv_cpu_controller_interrupt_disable_vector+0x32>
20404a04:	57fd                	li	a5,-1
20404a06:	853e                	mv	a0,a5
20404a08:	50b2                	lw	ra,44(sp)
20404a0a:	5422                	lw	s0,40(sp)
20404a0c:	6145                	addi	sp,sp,48
20404a0e:	8082                	ret

20404a10 <__metal_driver_riscv_cpu_controller_command_request>:
20404a10:	1101                	addi	sp,sp,-32
20404a12:	ce22                	sw	s0,28(sp)
20404a14:	1000                	addi	s0,sp,32
20404a16:	fea42623          	sw	a0,-20(s0)
20404a1a:	feb42423          	sw	a1,-24(s0)
20404a1e:	fec42223          	sw	a2,-28(s0)
20404a22:	4781                	li	a5,0
20404a24:	853e                	mv	a0,a5
20404a26:	4472                	lw	s0,28(sp)
20404a28:	6105                	addi	sp,sp,32
20404a2a:	8082                	ret

20404a2c <__metal_driver_cpu_timer_get>:
20404a2c:	7139                	addi	sp,sp,-64
20404a2e:	de22                	sw	s0,60(sp)
20404a30:	0080                	addi	s0,sp,64
20404a32:	fca42623          	sw	a0,-52(s0)
20404a36:	4301                	li	t1,0
20404a38:	4381                	li	t2,0
20404a3a:	fe642423          	sw	t1,-24(s0)
20404a3e:	fe742623          	sw	t2,-20(s0)
20404a42:	b8002573          	csrr	a0,mcycleh
20404a46:	fea42223          	sw	a0,-28(s0)
20404a4a:	b0002573          	csrr	a0,mcycle
20404a4e:	fea42023          	sw	a0,-32(s0)
20404a52:	b8002573          	csrr	a0,mcycleh
20404a56:	fca42e23          	sw	a0,-36(s0)
20404a5a:	fe442883          	lw	a7,-28(s0)
20404a5e:	fdc42503          	lw	a0,-36(s0)
20404a62:	02a89563          	bne	a7,a0,20404a8c <__metal_driver_cpu_timer_get+0x60>
20404a66:	fe442503          	lw	a0,-28(s0)
20404a6a:	85aa                	mv	a1,a0
20404a6c:	4601                	li	a2,0
20404a6e:	00059813          	slli	a6,a1,0x0
20404a72:	4781                	li	a5,0
20404a74:	fe042603          	lw	a2,-32(s0)
20404a78:	86b2                	mv	a3,a2
20404a7a:	4701                	li	a4,0
20404a7c:	00d7e633          	or	a2,a5,a3
20404a80:	fec42423          	sw	a2,-24(s0)
20404a84:	00e867b3          	or	a5,a6,a4
20404a88:	fef42623          	sw	a5,-20(s0)
20404a8c:	fe842783          	lw	a5,-24(s0)
20404a90:	fec42803          	lw	a6,-20(s0)
20404a94:	853e                	mv	a0,a5
20404a96:	85c2                	mv	a1,a6
20404a98:	5472                	lw	s0,60(sp)
20404a9a:	6121                	addi	sp,sp,64
20404a9c:	8082                	ret

20404a9e <__metal_driver_cpu_timebase_get>:
20404a9e:	7179                	addi	sp,sp,-48
20404aa0:	d622                	sw	s0,44(sp)
20404aa2:	1800                	addi	s0,sp,48
20404aa4:	fca42e23          	sw	a0,-36(s0)
20404aa8:	fdc42703          	lw	a4,-36(s0)
20404aac:	fee42623          	sw	a4,-20(s0)
20404ab0:	fec42703          	lw	a4,-20(s0)
20404ab4:	e701                	bnez	a4,20404abc <__metal_driver_cpu_timebase_get+0x1e>
20404ab6:	4781                	li	a5,0
20404ab8:	4801                	li	a6,0
20404aba:	a039                	j	20404ac8 <__metal_driver_cpu_timebase_get+0x2a>
20404abc:	fec42703          	lw	a4,-20(s0)
20404ac0:	4718                	lw	a4,8(a4)
20404ac2:	87ba                	mv	a5,a4
20404ac4:	877d                	srai	a4,a4,0x1f
20404ac6:	883a                	mv	a6,a4
20404ac8:	853e                	mv	a0,a5
20404aca:	85c2                	mv	a1,a6
20404acc:	5432                	lw	s0,44(sp)
20404ace:	6145                	addi	sp,sp,48
20404ad0:	8082                	ret

20404ad2 <__metal_driver_cpu_mtime_get>:
20404ad2:	7139                	addi	sp,sp,-64
20404ad4:	de06                	sw	ra,60(sp)
20404ad6:	dc22                	sw	s0,56(sp)
20404ad8:	0080                	addi	s0,sp,64
20404ada:	fca42623          	sw	a0,-52(s0)
20404ade:	4781                	li	a5,0
20404ae0:	4801                	li	a6,0
20404ae2:	fcf42c23          	sw	a5,-40(s0)
20404ae6:	fd042e23          	sw	a6,-36(s0)
20404aea:	fcc42783          	lw	a5,-52(s0)
20404aee:	fef42623          	sw	a5,-20(s0)
20404af2:	fec42783          	lw	a5,-20(s0)
20404af6:	47dc                	lw	a5,12(a5)
20404af8:	cb95                	beqz	a5,20404b2c <__metal_driver_cpu_mtime_get+0x5a>
20404afa:	fec42783          	lw	a5,-20(s0)
20404afe:	47dc                	lw	a5,12(a5)
20404b00:	fef42423          	sw	a5,-24(s0)
20404b04:	fe842783          	lw	a5,-24(s0)
20404b08:	1447a783          	lw	a5,324(a5)
20404b0c:	fef42223          	sw	a5,-28(s0)
20404b10:	fe442783          	lw	a5,-28(s0)
20404b14:	cf81                	beqz	a5,20404b2c <__metal_driver_cpu_mtime_get+0x5a>
20404b16:	fe442783          	lw	a5,-28(s0)
20404b1a:	439c                	lw	a5,0(a5)
20404b1c:	4f98                	lw	a4,24(a5)
20404b1e:	fd840793          	addi	a5,s0,-40
20404b22:	863e                	mv	a2,a5
20404b24:	4585                	li	a1,1
20404b26:	fe442503          	lw	a0,-28(s0)
20404b2a:	9702                	jalr	a4
20404b2c:	fd842783          	lw	a5,-40(s0)
20404b30:	fdc42803          	lw	a6,-36(s0)
20404b34:	853e                	mv	a0,a5
20404b36:	85c2                	mv	a1,a6
20404b38:	50f2                	lw	ra,60(sp)
20404b3a:	5462                	lw	s0,56(sp)
20404b3c:	6121                	addi	sp,sp,64
20404b3e:	8082                	ret

20404b40 <__metal_driver_cpu_mtimecmp_set>:
20404b40:	7179                	addi	sp,sp,-48
20404b42:	d606                	sw	ra,44(sp)
20404b44:	d422                	sw	s0,40(sp)
20404b46:	1800                	addi	s0,sp,48
20404b48:	fca42e23          	sw	a0,-36(s0)
20404b4c:	fcb42823          	sw	a1,-48(s0)
20404b50:	fcc42a23          	sw	a2,-44(s0)
20404b54:	57fd                	li	a5,-1
20404b56:	fef42623          	sw	a5,-20(s0)
20404b5a:	fdc42783          	lw	a5,-36(s0)
20404b5e:	fef42423          	sw	a5,-24(s0)
20404b62:	fe842783          	lw	a5,-24(s0)
20404b66:	47dc                	lw	a5,12(a5)
20404b68:	cf85                	beqz	a5,20404ba0 <__metal_driver_cpu_mtimecmp_set+0x60>
20404b6a:	fe842783          	lw	a5,-24(s0)
20404b6e:	47dc                	lw	a5,12(a5)
20404b70:	fef42223          	sw	a5,-28(s0)
20404b74:	fe442783          	lw	a5,-28(s0)
20404b78:	1447a783          	lw	a5,324(a5)
20404b7c:	fef42023          	sw	a5,-32(s0)
20404b80:	fe042783          	lw	a5,-32(s0)
20404b84:	cf91                	beqz	a5,20404ba0 <__metal_driver_cpu_mtimecmp_set+0x60>
20404b86:	fe042783          	lw	a5,-32(s0)
20404b8a:	439c                	lw	a5,0(a5)
20404b8c:	4f98                	lw	a4,24(a5)
20404b8e:	fd040793          	addi	a5,s0,-48
20404b92:	863e                	mv	a2,a5
20404b94:	4589                	li	a1,2
20404b96:	fe042503          	lw	a0,-32(s0)
20404b9a:	9702                	jalr	a4
20404b9c:	fea42623          	sw	a0,-20(s0)
20404ba0:	fec42783          	lw	a5,-20(s0)
20404ba4:	853e                	mv	a0,a5
20404ba6:	50b2                	lw	ra,44(sp)
20404ba8:	5422                	lw	s0,40(sp)
20404baa:	6145                	addi	sp,sp,48
20404bac:	8082                	ret

20404bae <__metal_driver_cpu_timer_controller_interrupt>:
20404bae:	1101                	addi	sp,sp,-32
20404bb0:	ce22                	sw	s0,28(sp)
20404bb2:	1000                	addi	s0,sp,32
20404bb4:	fea42623          	sw	a0,-20(s0)
20404bb8:	800007b7          	lui	a5,0x80000
20404bbc:	1e878793          	addi	a5,a5,488 # 800001e8 <metal_segment_heap_target_end+0xffffc1e8>
20404bc0:	853e                	mv	a0,a5
20404bc2:	4472                	lw	s0,28(sp)
20404bc4:	6105                	addi	sp,sp,32
20404bc6:	8082                	ret

20404bc8 <__metal_driver_cpu_get_timer_interrupt_id>:
20404bc8:	1101                	addi	sp,sp,-32
20404bca:	ce22                	sw	s0,28(sp)
20404bcc:	1000                	addi	s0,sp,32
20404bce:	fea42623          	sw	a0,-20(s0)
20404bd2:	479d                	li	a5,7
20404bd4:	853e                	mv	a0,a5
20404bd6:	4472                	lw	s0,28(sp)
20404bd8:	6105                	addi	sp,sp,32
20404bda:	8082                	ret

20404bdc <__metal_driver_cpu_sw_controller_interrupt>:
20404bdc:	1101                	addi	sp,sp,-32
20404bde:	ce22                	sw	s0,28(sp)
20404be0:	1000                	addi	s0,sp,32
20404be2:	fea42623          	sw	a0,-20(s0)
20404be6:	800007b7          	lui	a5,0x80000
20404bea:	1e878793          	addi	a5,a5,488 # 800001e8 <metal_segment_heap_target_end+0xffffc1e8>
20404bee:	853e                	mv	a0,a5
20404bf0:	4472                	lw	s0,28(sp)
20404bf2:	6105                	addi	sp,sp,32
20404bf4:	8082                	ret

20404bf6 <__metal_driver_cpu_get_sw_interrupt_id>:
20404bf6:	1101                	addi	sp,sp,-32
20404bf8:	ce22                	sw	s0,28(sp)
20404bfa:	1000                	addi	s0,sp,32
20404bfc:	fea42623          	sw	a0,-20(s0)
20404c00:	478d                	li	a5,3
20404c02:	853e                	mv	a0,a5
20404c04:	4472                	lw	s0,28(sp)
20404c06:	6105                	addi	sp,sp,32
20404c08:	8082                	ret

20404c0a <__metal_driver_cpu_set_sw_ipi>:
20404c0a:	7179                	addi	sp,sp,-48
20404c0c:	d606                	sw	ra,44(sp)
20404c0e:	d422                	sw	s0,40(sp)
20404c10:	1800                	addi	s0,sp,48
20404c12:	fca42e23          	sw	a0,-36(s0)
20404c16:	fcb42c23          	sw	a1,-40(s0)
20404c1a:	57fd                	li	a5,-1
20404c1c:	fef42623          	sw	a5,-20(s0)
20404c20:	fdc42783          	lw	a5,-36(s0)
20404c24:	fef42423          	sw	a5,-24(s0)
20404c28:	fe842783          	lw	a5,-24(s0)
20404c2c:	47dc                	lw	a5,12(a5)
20404c2e:	cf85                	beqz	a5,20404c66 <__metal_driver_cpu_set_sw_ipi+0x5c>
20404c30:	fe842783          	lw	a5,-24(s0)
20404c34:	47dc                	lw	a5,12(a5)
20404c36:	fef42223          	sw	a5,-28(s0)
20404c3a:	fe442783          	lw	a5,-28(s0)
20404c3e:	0e47a783          	lw	a5,228(a5)
20404c42:	fef42023          	sw	a5,-32(s0)
20404c46:	fe042783          	lw	a5,-32(s0)
20404c4a:	cf91                	beqz	a5,20404c66 <__metal_driver_cpu_set_sw_ipi+0x5c>
20404c4c:	fe042783          	lw	a5,-32(s0)
20404c50:	439c                	lw	a5,0(a5)
20404c52:	4f98                	lw	a4,24(a5)
20404c54:	fd840793          	addi	a5,s0,-40
20404c58:	863e                	mv	a2,a5
20404c5a:	4591                	li	a1,4
20404c5c:	fe042503          	lw	a0,-32(s0)
20404c60:	9702                	jalr	a4
20404c62:	fea42623          	sw	a0,-20(s0)
20404c66:	fec42783          	lw	a5,-20(s0)
20404c6a:	853e                	mv	a0,a5
20404c6c:	50b2                	lw	ra,44(sp)
20404c6e:	5422                	lw	s0,40(sp)
20404c70:	6145                	addi	sp,sp,48
20404c72:	8082                	ret

20404c74 <__metal_driver_cpu_clear_sw_ipi>:
20404c74:	7179                	addi	sp,sp,-48
20404c76:	d606                	sw	ra,44(sp)
20404c78:	d422                	sw	s0,40(sp)
20404c7a:	1800                	addi	s0,sp,48
20404c7c:	fca42e23          	sw	a0,-36(s0)
20404c80:	fcb42c23          	sw	a1,-40(s0)
20404c84:	57fd                	li	a5,-1
20404c86:	fef42623          	sw	a5,-20(s0)
20404c8a:	fdc42783          	lw	a5,-36(s0)
20404c8e:	fef42423          	sw	a5,-24(s0)
20404c92:	fe842783          	lw	a5,-24(s0)
20404c96:	47dc                	lw	a5,12(a5)
20404c98:	cf85                	beqz	a5,20404cd0 <__metal_driver_cpu_clear_sw_ipi+0x5c>
20404c9a:	fe842783          	lw	a5,-24(s0)
20404c9e:	47dc                	lw	a5,12(a5)
20404ca0:	fef42223          	sw	a5,-28(s0)
20404ca4:	fe442783          	lw	a5,-28(s0)
20404ca8:	0e47a783          	lw	a5,228(a5)
20404cac:	fef42023          	sw	a5,-32(s0)
20404cb0:	fe042783          	lw	a5,-32(s0)
20404cb4:	cf91                	beqz	a5,20404cd0 <__metal_driver_cpu_clear_sw_ipi+0x5c>
20404cb6:	fe042783          	lw	a5,-32(s0)
20404cba:	439c                	lw	a5,0(a5)
20404cbc:	4f98                	lw	a4,24(a5)
20404cbe:	fd840793          	addi	a5,s0,-40
20404cc2:	863e                	mv	a2,a5
20404cc4:	458d                	li	a1,3
20404cc6:	fe042503          	lw	a0,-32(s0)
20404cca:	9702                	jalr	a4
20404ccc:	fea42623          	sw	a0,-20(s0)
20404cd0:	fec42783          	lw	a5,-20(s0)
20404cd4:	853e                	mv	a0,a5
20404cd6:	50b2                	lw	ra,44(sp)
20404cd8:	5422                	lw	s0,40(sp)
20404cda:	6145                	addi	sp,sp,48
20404cdc:	8082                	ret

20404cde <__metal_driver_cpu_get_msip>:
20404cde:	7179                	addi	sp,sp,-48
20404ce0:	d606                	sw	ra,44(sp)
20404ce2:	d422                	sw	s0,40(sp)
20404ce4:	1800                	addi	s0,sp,48
20404ce6:	fca42e23          	sw	a0,-36(s0)
20404cea:	fcb42c23          	sw	a1,-40(s0)
20404cee:	fe042623          	sw	zero,-20(s0)
20404cf2:	fdc42783          	lw	a5,-36(s0)
20404cf6:	fef42423          	sw	a5,-24(s0)
20404cfa:	fe842783          	lw	a5,-24(s0)
20404cfe:	47dc                	lw	a5,12(a5)
20404d00:	cf85                	beqz	a5,20404d38 <__metal_driver_cpu_get_msip+0x5a>
20404d02:	fe842783          	lw	a5,-24(s0)
20404d06:	47dc                	lw	a5,12(a5)
20404d08:	fef42223          	sw	a5,-28(s0)
20404d0c:	fe442783          	lw	a5,-28(s0)
20404d10:	0e47a783          	lw	a5,228(a5)
20404d14:	fef42023          	sw	a5,-32(s0)
20404d18:	fe042783          	lw	a5,-32(s0)
20404d1c:	cf91                	beqz	a5,20404d38 <__metal_driver_cpu_get_msip+0x5a>
20404d1e:	fe042783          	lw	a5,-32(s0)
20404d22:	439c                	lw	a5,0(a5)
20404d24:	4f98                	lw	a4,24(a5)
20404d26:	fd840793          	addi	a5,s0,-40
20404d2a:	863e                	mv	a2,a5
20404d2c:	4595                	li	a1,5
20404d2e:	fe042503          	lw	a0,-32(s0)
20404d32:	9702                	jalr	a4
20404d34:	fea42623          	sw	a0,-20(s0)
20404d38:	fec42783          	lw	a5,-20(s0)
20404d3c:	853e                	mv	a0,a5
20404d3e:	50b2                	lw	ra,44(sp)
20404d40:	5422                	lw	s0,40(sp)
20404d42:	6145                	addi	sp,sp,48
20404d44:	8082                	ret

20404d46 <__metal_driver_cpu_controller_interrupt>:
20404d46:	7179                	addi	sp,sp,-48
20404d48:	d622                	sw	s0,44(sp)
20404d4a:	1800                	addi	s0,sp,48
20404d4c:	fca42e23          	sw	a0,-36(s0)
20404d50:	fdc42783          	lw	a5,-36(s0)
20404d54:	fef42623          	sw	a5,-20(s0)
20404d58:	fec42783          	lw	a5,-20(s0)
20404d5c:	47dc                	lw	a5,12(a5)
20404d5e:	853e                	mv	a0,a5
20404d60:	5432                	lw	s0,44(sp)
20404d62:	6145                	addi	sp,sp,48
20404d64:	8082                	ret

20404d66 <__metal_driver_cpu_exception_register>:
20404d66:	7179                	addi	sp,sp,-48
20404d68:	d606                	sw	ra,44(sp)
20404d6a:	d422                	sw	s0,40(sp)
20404d6c:	1800                	addi	s0,sp,48
20404d6e:	fca42e23          	sw	a0,-36(s0)
20404d72:	fcb42c23          	sw	a1,-40(s0)
20404d76:	fcc42a23          	sw	a2,-44(s0)
20404d7a:	fdc42783          	lw	a5,-36(s0)
20404d7e:	fef42623          	sw	a5,-20(s0)
20404d82:	fec42783          	lw	a5,-20(s0)
20404d86:	47dc                	lw	a5,12(a5)
20404d88:	cf89                	beqz	a5,20404da2 <__metal_driver_cpu_exception_register+0x3c>
20404d8a:	fec42783          	lw	a5,-20(s0)
20404d8e:	47dc                	lw	a5,12(a5)
20404d90:	fd442603          	lw	a2,-44(s0)
20404d94:	fd842583          	lw	a1,-40(s0)
20404d98:	853e                	mv	a0,a5
20404d9a:	8f3ff0ef          	jal	ra,2040468c <__metal_exception_register>
20404d9e:	87aa                	mv	a5,a0
20404da0:	a011                	j	20404da4 <__metal_driver_cpu_exception_register+0x3e>
20404da2:	57fd                	li	a5,-1
20404da4:	853e                	mv	a0,a5
20404da6:	50b2                	lw	ra,44(sp)
20404da8:	5422                	lw	s0,40(sp)
20404daa:	6145                	addi	sp,sp,48
20404dac:	8082                	ret

20404dae <__metal_driver_cpu_get_instruction_length>:
20404dae:	1101                	addi	sp,sp,-32
20404db0:	ce22                	sw	s0,28(sp)
20404db2:	1000                	addi	s0,sp,32
20404db4:	fea42623          	sw	a0,-20(s0)
20404db8:	feb42423          	sw	a1,-24(s0)
20404dbc:	fe842783          	lw	a5,-24(s0)
20404dc0:	0007d783          	lhu	a5,0(a5)
20404dc4:	8b8d                	andi	a5,a5,3
20404dc6:	c399                	beqz	a5,20404dcc <__metal_driver_cpu_get_instruction_length+0x1e>
20404dc8:	4791                	li	a5,4
20404dca:	a011                	j	20404dce <__metal_driver_cpu_get_instruction_length+0x20>
20404dcc:	4789                	li	a5,2
20404dce:	853e                	mv	a0,a5
20404dd0:	4472                	lw	s0,28(sp)
20404dd2:	6105                	addi	sp,sp,32
20404dd4:	8082                	ret

20404dd6 <__metal_driver_cpu_get_exception_pc>:
20404dd6:	7179                	addi	sp,sp,-48
20404dd8:	d622                	sw	s0,44(sp)
20404dda:	1800                	addi	s0,sp,48
20404ddc:	fca42e23          	sw	a0,-36(s0)
20404de0:	341027f3          	csrr	a5,mepc
20404de4:	fef42623          	sw	a5,-20(s0)
20404de8:	fec42783          	lw	a5,-20(s0)
20404dec:	853e                	mv	a0,a5
20404dee:	5432                	lw	s0,44(sp)
20404df0:	6145                	addi	sp,sp,48
20404df2:	8082                	ret

20404df4 <__metal_driver_cpu_set_exception_pc>:
20404df4:	1101                	addi	sp,sp,-32
20404df6:	ce22                	sw	s0,28(sp)
20404df8:	1000                	addi	s0,sp,32
20404dfa:	fea42623          	sw	a0,-20(s0)
20404dfe:	feb42423          	sw	a1,-24(s0)
20404e02:	fe842783          	lw	a5,-24(s0)
20404e06:	34179073          	csrw	mepc,a5
20404e0a:	4781                	li	a5,0
20404e0c:	853e                	mv	a0,a5
20404e0e:	4472                	lw	s0,28(sp)
20404e10:	6105                	addi	sp,sp,32
20404e12:	8082                	ret

20404e14 <__metal_plic0_claim_interrupt>:
20404e14:	1101                	addi	sp,sp,-32
20404e16:	ce22                	sw	s0,28(sp)
20404e18:	1000                	addi	s0,sp,32
20404e1a:	fea42623          	sw	a0,-20(s0)
20404e1e:	fec42783          	lw	a5,-20(s0)
20404e22:	4798                	lw	a4,8(a5)
20404e24:	002007b7          	lui	a5,0x200
20404e28:	0791                	addi	a5,a5,4
20404e2a:	97ba                	add	a5,a5,a4
20404e2c:	439c                	lw	a5,0(a5)
20404e2e:	853e                	mv	a0,a5
20404e30:	4472                	lw	s0,28(sp)
20404e32:	6105                	addi	sp,sp,32
20404e34:	8082                	ret

20404e36 <__metal_plic0_complete_interrupt>:
20404e36:	1101                	addi	sp,sp,-32
20404e38:	ce22                	sw	s0,28(sp)
20404e3a:	1000                	addi	s0,sp,32
20404e3c:	fea42623          	sw	a0,-20(s0)
20404e40:	feb42423          	sw	a1,-24(s0)
20404e44:	fec42783          	lw	a5,-20(s0)
20404e48:	4798                	lw	a4,8(a5)
20404e4a:	002007b7          	lui	a5,0x200
20404e4e:	0791                	addi	a5,a5,4
20404e50:	97ba                	add	a5,a5,a4
20404e52:	873e                	mv	a4,a5
20404e54:	fe842783          	lw	a5,-24(s0)
20404e58:	c31c                	sw	a5,0(a4)
20404e5a:	0001                	nop
20404e5c:	4472                	lw	s0,28(sp)
20404e5e:	6105                	addi	sp,sp,32
20404e60:	8082                	ret

20404e62 <__metal_plic0_set_threshold>:
20404e62:	1101                	addi	sp,sp,-32
20404e64:	ce22                	sw	s0,28(sp)
20404e66:	1000                	addi	s0,sp,32
20404e68:	fea42623          	sw	a0,-20(s0)
20404e6c:	feb42423          	sw	a1,-24(s0)
20404e70:	fec42783          	lw	a5,-20(s0)
20404e74:	4798                	lw	a4,8(a5)
20404e76:	002007b7          	lui	a5,0x200
20404e7a:	97ba                	add	a5,a5,a4
20404e7c:	873e                	mv	a4,a5
20404e7e:	fe842783          	lw	a5,-24(s0)
20404e82:	c31c                	sw	a5,0(a4)
20404e84:	0001                	nop
20404e86:	4472                	lw	s0,28(sp)
20404e88:	6105                	addi	sp,sp,32
20404e8a:	8082                	ret

20404e8c <__metal_plic0_set_priority>:
20404e8c:	1101                	addi	sp,sp,-32
20404e8e:	ce22                	sw	s0,28(sp)
20404e90:	1000                	addi	s0,sp,32
20404e92:	fea42623          	sw	a0,-20(s0)
20404e96:	feb42423          	sw	a1,-24(s0)
20404e9a:	fec42223          	sw	a2,-28(s0)
20404e9e:	fec42783          	lw	a5,-20(s0)
20404ea2:	4f9c                	lw	a5,24(a5)
20404ea4:	c785                	beqz	a5,20404ecc <__metal_plic0_set_priority+0x40>
20404ea6:	fec42783          	lw	a5,-20(s0)
20404eaa:	4f9c                	lw	a5,24(a5)
20404eac:	873e                	mv	a4,a5
20404eae:	fe442783          	lw	a5,-28(s0)
20404eb2:	00e7fd63          	bgeu	a5,a4,20404ecc <__metal_plic0_set_priority+0x40>
20404eb6:	fec42783          	lw	a5,-20(s0)
20404eba:	479c                	lw	a5,8(a5)
20404ebc:	fe842703          	lw	a4,-24(s0)
20404ec0:	070a                	slli	a4,a4,0x2
20404ec2:	97ba                	add	a5,a5,a4
20404ec4:	873e                	mv	a4,a5
20404ec6:	fe442783          	lw	a5,-28(s0)
20404eca:	c31c                	sw	a5,0(a4)
20404ecc:	0001                	nop
20404ece:	4472                	lw	s0,28(sp)
20404ed0:	6105                	addi	sp,sp,32
20404ed2:	8082                	ret

20404ed4 <__metal_plic0_enable>:
20404ed4:	7179                	addi	sp,sp,-48
20404ed6:	d606                	sw	ra,44(sp)
20404ed8:	d422                	sw	s0,40(sp)
20404eda:	1800                	addi	s0,sp,48
20404edc:	fca42e23          	sw	a0,-36(s0)
20404ee0:	fcb42c23          	sw	a1,-40(s0)
20404ee4:	fcc42a23          	sw	a2,-44(s0)
20404ee8:	a4aff0ef          	jal	ra,20404132 <__metal_myhart_id>
20404eec:	fea42623          	sw	a0,-20(s0)
20404ef0:	fdc42783          	lw	a5,-36(s0)
20404ef4:	479c                	lw	a5,8(a5)
20404ef6:	fd842703          	lw	a4,-40(s0)
20404efa:	8715                	srai	a4,a4,0x5
20404efc:	070a                	slli	a4,a4,0x2
20404efe:	973e                	add	a4,a4,a5
20404f00:	6789                	lui	a5,0x2
20404f02:	97ba                	add	a5,a5,a4
20404f04:	439c                	lw	a5,0(a5)
20404f06:	fef42423          	sw	a5,-24(s0)
20404f0a:	fd442783          	lw	a5,-44(s0)
20404f0e:	cf81                	beqz	a5,20404f26 <__metal_plic0_enable+0x52>
20404f10:	fd842783          	lw	a5,-40(s0)
20404f14:	8bfd                	andi	a5,a5,31
20404f16:	4705                	li	a4,1
20404f18:	00f717b3          	sll	a5,a4,a5
20404f1c:	873e                	mv	a4,a5
20404f1e:	fe842783          	lw	a5,-24(s0)
20404f22:	8fd9                	or	a5,a5,a4
20404f24:	a829                	j	20404f3e <__metal_plic0_enable+0x6a>
20404f26:	fd842783          	lw	a5,-40(s0)
20404f2a:	8bfd                	andi	a5,a5,31
20404f2c:	4705                	li	a4,1
20404f2e:	00f717b3          	sll	a5,a4,a5
20404f32:	fff7c793          	not	a5,a5
20404f36:	873e                	mv	a4,a5
20404f38:	fe842783          	lw	a5,-24(s0)
20404f3c:	8ff9                	and	a5,a5,a4
20404f3e:	fdc42703          	lw	a4,-36(s0)
20404f42:	4718                	lw	a4,8(a4)
20404f44:	fd842683          	lw	a3,-40(s0)
20404f48:	8695                	srai	a3,a3,0x5
20404f4a:	068a                	slli	a3,a3,0x2
20404f4c:	96ba                	add	a3,a3,a4
20404f4e:	6709                	lui	a4,0x2
20404f50:	9736                	add	a4,a4,a3
20404f52:	c31c                	sw	a5,0(a4)
20404f54:	0001                	nop
20404f56:	50b2                	lw	ra,44(sp)
20404f58:	5422                	lw	s0,40(sp)
20404f5a:	6145                	addi	sp,sp,48
20404f5c:	8082                	ret

20404f5e <__metal_plic0_default_handler>:
20404f5e:	1101                	addi	sp,sp,-32
20404f60:	ce06                	sw	ra,28(sp)
20404f62:	cc22                	sw	s0,24(sp)
20404f64:	1000                	addi	s0,sp,32
20404f66:	fea42623          	sw	a0,-20(s0)
20404f6a:	feb42423          	sw	a1,-24(s0)
20404f6e:	12c00513          	li	a0,300
20404f72:	093000ef          	jal	ra,20405804 <metal_shutdown>

20404f76 <__metal_plic0_handler>:
20404f76:	7179                	addi	sp,sp,-48
20404f78:	d606                	sw	ra,44(sp)
20404f7a:	d422                	sw	s0,40(sp)
20404f7c:	1800                	addi	s0,sp,48
20404f7e:	fca42e23          	sw	a0,-36(s0)
20404f82:	fcb42c23          	sw	a1,-40(s0)
20404f86:	fd842783          	lw	a5,-40(s0)
20404f8a:	fef42623          	sw	a5,-20(s0)
20404f8e:	fec42503          	lw	a0,-20(s0)
20404f92:	3549                	jal	20404e14 <__metal_plic0_claim_interrupt>
20404f94:	fea42423          	sw	a0,-24(s0)
20404f98:	fec42783          	lw	a5,-20(s0)
20404f9c:	4fdc                	lw	a5,28(a5)
20404f9e:	873e                	mv	a4,a5
20404fa0:	fe842783          	lw	a5,-24(s0)
20404fa4:	04e7f463          	bgeu	a5,a4,20404fec <__metal_plic0_handler+0x76>
20404fa8:	fec42703          	lw	a4,-20(s0)
20404fac:	fe842783          	lw	a5,-24(s0)
20404fb0:	07a1                	addi	a5,a5,8
20404fb2:	078a                	slli	a5,a5,0x2
20404fb4:	97ba                	add	a5,a5,a4
20404fb6:	479c                	lw	a5,8(a5)
20404fb8:	cb95                	beqz	a5,20404fec <__metal_plic0_handler+0x76>
20404fba:	fec42703          	lw	a4,-20(s0)
20404fbe:	fe842783          	lw	a5,-24(s0)
20404fc2:	07a1                	addi	a5,a5,8
20404fc4:	078a                	slli	a5,a5,0x2
20404fc6:	97ba                	add	a5,a5,a4
20404fc8:	0087a803          	lw	a6,8(a5) # 2008 <__stack_size+0x1808>
20404fcc:	fe842603          	lw	a2,-24(s0)
20404fd0:	fec42683          	lw	a3,-20(s0)
20404fd4:	fe842703          	lw	a4,-24(s0)
20404fd8:	87ba                	mv	a5,a4
20404fda:	0786                	slli	a5,a5,0x1
20404fdc:	97ba                	add	a5,a5,a4
20404fde:	078e                	slli	a5,a5,0x3
20404fe0:	97b6                	add	a5,a5,a3
20404fe2:	0a87a783          	lw	a5,168(a5)
20404fe6:	85be                	mv	a1,a5
20404fe8:	8532                	mv	a0,a2
20404fea:	9802                	jalr	a6
20404fec:	fe842583          	lw	a1,-24(s0)
20404ff0:	fec42503          	lw	a0,-20(s0)
20404ff4:	3589                	jal	20404e36 <__metal_plic0_complete_interrupt>
20404ff6:	0001                	nop
20404ff8:	50b2                	lw	ra,44(sp)
20404ffa:	5422                	lw	s0,40(sp)
20404ffc:	6145                	addi	sp,sp,48
20404ffe:	8082                	ret

20405000 <__metal_driver_riscv_plic0_init>:
20405000:	7179                	addi	sp,sp,-48
20405002:	d606                	sw	ra,44(sp)
20405004:	d422                	sw	s0,40(sp)
20405006:	1800                	addi	s0,sp,48
20405008:	fca42e23          	sw	a0,-36(s0)
2040500c:	fdc42783          	lw	a5,-36(s0)
20405010:	fef42423          	sw	a5,-24(s0)
20405014:	fe842783          	lw	a5,-24(s0)
20405018:	539c                	lw	a5,32(a5)
2040501a:	0e079b63          	bnez	a5,20405110 <__metal_driver_riscv_plic0_init+0x110>
2040501e:	fe842783          	lw	a5,-24(s0)
20405022:	4b9c                	lw	a5,16(a5)
20405024:	fef42223          	sw	a5,-28(s0)
20405028:	fe442783          	lw	a5,-28(s0)
2040502c:	439c                	lw	a5,0(a5)
2040502e:	439c                	lw	a5,0(a5)
20405030:	fe442503          	lw	a0,-28(s0)
20405034:	9782                	jalr	a5
20405036:	fe042623          	sw	zero,-20(s0)
2040503a:	a08d                	j	2040509c <__metal_driver_riscv_plic0_init+0x9c>
2040503c:	4601                	li	a2,0
2040503e:	fec42583          	lw	a1,-20(s0)
20405042:	fe842503          	lw	a0,-24(s0)
20405046:	3579                	jal	20404ed4 <__metal_plic0_enable>
20405048:	4601                	li	a2,0
2040504a:	fec42583          	lw	a1,-20(s0)
2040504e:	fe842503          	lw	a0,-24(s0)
20405052:	3d2d                	jal	20404e8c <__metal_plic0_set_priority>
20405054:	fe842703          	lw	a4,-24(s0)
20405058:	fec42783          	lw	a5,-20(s0)
2040505c:	07a1                	addi	a5,a5,8
2040505e:	078a                	slli	a5,a5,0x2
20405060:	97ba                	add	a5,a5,a4
20405062:	0007a423          	sw	zero,8(a5)
20405066:	fe842683          	lw	a3,-24(s0)
2040506a:	fec42703          	lw	a4,-20(s0)
2040506e:	87ba                	mv	a5,a4
20405070:	0786                	slli	a5,a5,0x1
20405072:	97ba                	add	a5,a5,a4
20405074:	078e                	slli	a5,a5,0x3
20405076:	97b6                	add	a5,a5,a3
20405078:	0a07a223          	sw	zero,164(a5)
2040507c:	fe842683          	lw	a3,-24(s0)
20405080:	fec42703          	lw	a4,-20(s0)
20405084:	87ba                	mv	a5,a4
20405086:	0786                	slli	a5,a5,0x1
20405088:	97ba                	add	a5,a5,a4
2040508a:	078e                	slli	a5,a5,0x3
2040508c:	97b6                	add	a5,a5,a3
2040508e:	0a07a423          	sw	zero,168(a5)
20405092:	fec42783          	lw	a5,-20(s0)
20405096:	0785                	addi	a5,a5,1
20405098:	fef42623          	sw	a5,-20(s0)
2040509c:	fe842783          	lw	a5,-24(s0)
204050a0:	4fdc                	lw	a5,28(a5)
204050a2:	fec42703          	lw	a4,-20(s0)
204050a6:	f8f74be3          	blt	a4,a5,2040503c <__metal_driver_riscv_plic0_init+0x3c>
204050aa:	4581                	li	a1,0
204050ac:	fe842503          	lw	a0,-24(s0)
204050b0:	3b4d                	jal	20404e62 <__metal_plic0_set_threshold>
204050b2:	fe442783          	lw	a5,-28(s0)
204050b6:	439c                	lw	a5,0(a5)
204050b8:	43d8                	lw	a4,4(a5)
204050ba:	fe842783          	lw	a5,-24(s0)
204050be:	4bdc                	lw	a5,20(a5)
204050c0:	fe842683          	lw	a3,-24(s0)
204050c4:	4601                	li	a2,0
204050c6:	85be                	mv	a1,a5
204050c8:	fe442503          	lw	a0,-28(s0)
204050cc:	9702                	jalr	a4
204050ce:	fe442783          	lw	a5,-28(s0)
204050d2:	439c                	lw	a5,0(a5)
204050d4:	0047a803          	lw	a6,4(a5)
204050d8:	fe842783          	lw	a5,-24(s0)
204050dc:	4bd8                	lw	a4,20(a5)
204050de:	fe842683          	lw	a3,-24(s0)
204050e2:	204057b7          	lui	a5,0x20405
204050e6:	f7678613          	addi	a2,a5,-138 # 20404f76 <__metal_plic0_handler>
204050ea:	85ba                	mv	a1,a4
204050ec:	fe442503          	lw	a0,-28(s0)
204050f0:	9802                	jalr	a6
204050f2:	fe442783          	lw	a5,-28(s0)
204050f6:	439c                	lw	a5,0(a5)
204050f8:	4798                	lw	a4,8(a5)
204050fa:	fe842783          	lw	a5,-24(s0)
204050fe:	4bdc                	lw	a5,20(a5)
20405100:	85be                	mv	a1,a5
20405102:	fe442503          	lw	a0,-28(s0)
20405106:	9702                	jalr	a4
20405108:	fe842783          	lw	a5,-24(s0)
2040510c:	4705                	li	a4,1
2040510e:	d398                	sw	a4,32(a5)
20405110:	0001                	nop
20405112:	50b2                	lw	ra,44(sp)
20405114:	5422                	lw	s0,40(sp)
20405116:	6145                	addi	sp,sp,48
20405118:	8082                	ret

2040511a <__metal_driver_riscv_plic0_register>:
2040511a:	7179                	addi	sp,sp,-48
2040511c:	d606                	sw	ra,44(sp)
2040511e:	d422                	sw	s0,40(sp)
20405120:	1800                	addi	s0,sp,48
20405122:	fca42e23          	sw	a0,-36(s0)
20405126:	fcb42c23          	sw	a1,-40(s0)
2040512a:	fcc42a23          	sw	a2,-44(s0)
2040512e:	fcd42823          	sw	a3,-48(s0)
20405132:	fdc42783          	lw	a5,-36(s0)
20405136:	fef42623          	sw	a5,-20(s0)
2040513a:	fec42783          	lw	a5,-20(s0)
2040513e:	4fdc                	lw	a5,28(a5)
20405140:	fd842703          	lw	a4,-40(s0)
20405144:	00f74463          	blt	a4,a5,2040514c <__metal_driver_riscv_plic0_register+0x32>
20405148:	57fd                	li	a5,-1
2040514a:	a059                	j	204051d0 <__metal_driver_riscv_plic0_register+0xb6>
2040514c:	fd442783          	lw	a5,-44(s0)
20405150:	cf9d                	beqz	a5,2040518e <__metal_driver_riscv_plic0_register+0x74>
20405152:	4609                	li	a2,2
20405154:	fd842583          	lw	a1,-40(s0)
20405158:	fec42503          	lw	a0,-20(s0)
2040515c:	3b05                	jal	20404e8c <__metal_plic0_set_priority>
2040515e:	fec42703          	lw	a4,-20(s0)
20405162:	fd842783          	lw	a5,-40(s0)
20405166:	07a1                	addi	a5,a5,8
20405168:	078a                	slli	a5,a5,0x2
2040516a:	97ba                	add	a5,a5,a4
2040516c:	fd442703          	lw	a4,-44(s0)
20405170:	c798                	sw	a4,8(a5)
20405172:	fec42683          	lw	a3,-20(s0)
20405176:	fd842703          	lw	a4,-40(s0)
2040517a:	87ba                	mv	a5,a4
2040517c:	0786                	slli	a5,a5,0x1
2040517e:	97ba                	add	a5,a5,a4
20405180:	078e                	slli	a5,a5,0x3
20405182:	97b6                	add	a5,a5,a3
20405184:	fd042703          	lw	a4,-48(s0)
20405188:	0ae7a423          	sw	a4,168(a5)
2040518c:	a089                	j	204051ce <__metal_driver_riscv_plic0_register+0xb4>
2040518e:	4605                	li	a2,1
20405190:	fd842583          	lw	a1,-40(s0)
20405194:	fec42503          	lw	a0,-20(s0)
20405198:	cf5ff0ef          	jal	ra,20404e8c <__metal_plic0_set_priority>
2040519c:	fec42703          	lw	a4,-20(s0)
204051a0:	fd842783          	lw	a5,-40(s0)
204051a4:	07a1                	addi	a5,a5,8
204051a6:	078a                	slli	a5,a5,0x2
204051a8:	97ba                	add	a5,a5,a4
204051aa:	20405737          	lui	a4,0x20405
204051ae:	f5e70713          	addi	a4,a4,-162 # 20404f5e <__metal_plic0_default_handler>
204051b2:	c798                	sw	a4,8(a5)
204051b4:	fec42683          	lw	a3,-20(s0)
204051b8:	fd842703          	lw	a4,-40(s0)
204051bc:	87ba                	mv	a5,a4
204051be:	0786                	slli	a5,a5,0x1
204051c0:	97ba                	add	a5,a5,a4
204051c2:	078e                	slli	a5,a5,0x3
204051c4:	97b6                	add	a5,a5,a3
204051c6:	fd042703          	lw	a4,-48(s0)
204051ca:	0ae7a223          	sw	a4,164(a5)
204051ce:	4781                	li	a5,0
204051d0:	853e                	mv	a0,a5
204051d2:	50b2                	lw	ra,44(sp)
204051d4:	5422                	lw	s0,40(sp)
204051d6:	6145                	addi	sp,sp,48
204051d8:	8082                	ret

204051da <__metal_driver_riscv_plic0_enable>:
204051da:	7179                	addi	sp,sp,-48
204051dc:	d606                	sw	ra,44(sp)
204051de:	d422                	sw	s0,40(sp)
204051e0:	1800                	addi	s0,sp,48
204051e2:	fca42e23          	sw	a0,-36(s0)
204051e6:	fcb42c23          	sw	a1,-40(s0)
204051ea:	fdc42783          	lw	a5,-36(s0)
204051ee:	fef42623          	sw	a5,-20(s0)
204051f2:	fec42783          	lw	a5,-20(s0)
204051f6:	4fdc                	lw	a5,28(a5)
204051f8:	fd842703          	lw	a4,-40(s0)
204051fc:	00f74463          	blt	a4,a5,20405204 <__metal_driver_riscv_plic0_enable+0x2a>
20405200:	57fd                	li	a5,-1
20405202:	a809                	j	20405214 <__metal_driver_riscv_plic0_enable+0x3a>
20405204:	4605                	li	a2,1
20405206:	fd842583          	lw	a1,-40(s0)
2040520a:	fec42503          	lw	a0,-20(s0)
2040520e:	cc7ff0ef          	jal	ra,20404ed4 <__metal_plic0_enable>
20405212:	4781                	li	a5,0
20405214:	853e                	mv	a0,a5
20405216:	50b2                	lw	ra,44(sp)
20405218:	5422                	lw	s0,40(sp)
2040521a:	6145                	addi	sp,sp,48
2040521c:	8082                	ret

2040521e <__metal_driver_riscv_plic0_disable>:
2040521e:	7179                	addi	sp,sp,-48
20405220:	d606                	sw	ra,44(sp)
20405222:	d422                	sw	s0,40(sp)
20405224:	1800                	addi	s0,sp,48
20405226:	fca42e23          	sw	a0,-36(s0)
2040522a:	fcb42c23          	sw	a1,-40(s0)
2040522e:	fdc42783          	lw	a5,-36(s0)
20405232:	fef42623          	sw	a5,-20(s0)
20405236:	fec42783          	lw	a5,-20(s0)
2040523a:	4fdc                	lw	a5,28(a5)
2040523c:	fd842703          	lw	a4,-40(s0)
20405240:	00f74463          	blt	a4,a5,20405248 <__metal_driver_riscv_plic0_disable+0x2a>
20405244:	57fd                	li	a5,-1
20405246:	a809                	j	20405258 <__metal_driver_riscv_plic0_disable+0x3a>
20405248:	4601                	li	a2,0
2040524a:	fd842583          	lw	a1,-40(s0)
2040524e:	fec42503          	lw	a0,-20(s0)
20405252:	c83ff0ef          	jal	ra,20404ed4 <__metal_plic0_enable>
20405256:	4781                	li	a5,0
20405258:	853e                	mv	a0,a5
2040525a:	50b2                	lw	ra,44(sp)
2040525c:	5422                	lw	s0,40(sp)
2040525e:	6145                	addi	sp,sp,48
20405260:	8082                	ret

20405262 <__metal_driver_sifive_gpio0_disable_input>:
20405262:	7179                	addi	sp,sp,-48
20405264:	d622                	sw	s0,44(sp)
20405266:	1800                	addi	s0,sp,48
20405268:	fca42e23          	sw	a0,-36(s0)
2040526c:	fcb42c23          	sw	a1,-40(s0)
20405270:	fdc42783          	lw	a5,-36(s0)
20405274:	fef42623          	sw	a5,-20(s0)
20405278:	fec42783          	lw	a5,-20(s0)
2040527c:	479c                	lw	a5,8(a5)
2040527e:	0791                	addi	a5,a5,4
20405280:	439c                	lw	a5,0(a5)
20405282:	fd842703          	lw	a4,-40(s0)
20405286:	fff74713          	not	a4,a4
2040528a:	86ba                	mv	a3,a4
2040528c:	fec42703          	lw	a4,-20(s0)
20405290:	4718                	lw	a4,8(a4)
20405292:	0711                	addi	a4,a4,4
20405294:	8ff5                	and	a5,a5,a3
20405296:	c31c                	sw	a5,0(a4)
20405298:	4781                	li	a5,0
2040529a:	853e                	mv	a0,a5
2040529c:	5432                	lw	s0,44(sp)
2040529e:	6145                	addi	sp,sp,48
204052a0:	8082                	ret

204052a2 <__metal_driver_sifive_gpio0_output>:
204052a2:	7179                	addi	sp,sp,-48
204052a4:	d622                	sw	s0,44(sp)
204052a6:	1800                	addi	s0,sp,48
204052a8:	fca42e23          	sw	a0,-36(s0)
204052ac:	fdc42783          	lw	a5,-36(s0)
204052b0:	fef42623          	sw	a5,-20(s0)
204052b4:	fec42783          	lw	a5,-20(s0)
204052b8:	479c                	lw	a5,8(a5)
204052ba:	07b1                	addi	a5,a5,12
204052bc:	439c                	lw	a5,0(a5)
204052be:	853e                	mv	a0,a5
204052c0:	5432                	lw	s0,44(sp)
204052c2:	6145                	addi	sp,sp,48
204052c4:	8082                	ret

204052c6 <__metal_driver_sifive_gpio0_enable_output>:
204052c6:	7179                	addi	sp,sp,-48
204052c8:	d622                	sw	s0,44(sp)
204052ca:	1800                	addi	s0,sp,48
204052cc:	fca42e23          	sw	a0,-36(s0)
204052d0:	fcb42c23          	sw	a1,-40(s0)
204052d4:	fdc42783          	lw	a5,-36(s0)
204052d8:	fef42623          	sw	a5,-20(s0)
204052dc:	fec42783          	lw	a5,-20(s0)
204052e0:	479c                	lw	a5,8(a5)
204052e2:	07a1                	addi	a5,a5,8
204052e4:	4398                	lw	a4,0(a5)
204052e6:	fd842783          	lw	a5,-40(s0)
204052ea:	fec42683          	lw	a3,-20(s0)
204052ee:	4694                	lw	a3,8(a3)
204052f0:	06a1                	addi	a3,a3,8
204052f2:	8fd9                	or	a5,a5,a4
204052f4:	c29c                	sw	a5,0(a3)
204052f6:	4781                	li	a5,0
204052f8:	853e                	mv	a0,a5
204052fa:	5432                	lw	s0,44(sp)
204052fc:	6145                	addi	sp,sp,48
204052fe:	8082                	ret

20405300 <__metal_driver_sifive_gpio0_output_set>:
20405300:	7179                	addi	sp,sp,-48
20405302:	d622                	sw	s0,44(sp)
20405304:	1800                	addi	s0,sp,48
20405306:	fca42e23          	sw	a0,-36(s0)
2040530a:	fcb42c23          	sw	a1,-40(s0)
2040530e:	fdc42783          	lw	a5,-36(s0)
20405312:	fef42623          	sw	a5,-20(s0)
20405316:	fec42783          	lw	a5,-20(s0)
2040531a:	479c                	lw	a5,8(a5)
2040531c:	07b1                	addi	a5,a5,12
2040531e:	4398                	lw	a4,0(a5)
20405320:	fd842783          	lw	a5,-40(s0)
20405324:	fec42683          	lw	a3,-20(s0)
20405328:	4694                	lw	a3,8(a3)
2040532a:	06b1                	addi	a3,a3,12
2040532c:	8fd9                	or	a5,a5,a4
2040532e:	c29c                	sw	a5,0(a3)
20405330:	4781                	li	a5,0
20405332:	853e                	mv	a0,a5
20405334:	5432                	lw	s0,44(sp)
20405336:	6145                	addi	sp,sp,48
20405338:	8082                	ret

2040533a <__metal_driver_sifive_gpio0_output_clear>:
2040533a:	7179                	addi	sp,sp,-48
2040533c:	d622                	sw	s0,44(sp)
2040533e:	1800                	addi	s0,sp,48
20405340:	fca42e23          	sw	a0,-36(s0)
20405344:	fcb42c23          	sw	a1,-40(s0)
20405348:	fdc42783          	lw	a5,-36(s0)
2040534c:	fef42623          	sw	a5,-20(s0)
20405350:	fec42783          	lw	a5,-20(s0)
20405354:	479c                	lw	a5,8(a5)
20405356:	07b1                	addi	a5,a5,12
20405358:	439c                	lw	a5,0(a5)
2040535a:	fd842703          	lw	a4,-40(s0)
2040535e:	fff74713          	not	a4,a4
20405362:	86ba                	mv	a3,a4
20405364:	fec42703          	lw	a4,-20(s0)
20405368:	4718                	lw	a4,8(a4)
2040536a:	0731                	addi	a4,a4,12
2040536c:	8ff5                	and	a5,a5,a3
2040536e:	c31c                	sw	a5,0(a4)
20405370:	4781                	li	a5,0
20405372:	853e                	mv	a0,a5
20405374:	5432                	lw	s0,44(sp)
20405376:	6145                	addi	sp,sp,48
20405378:	8082                	ret

2040537a <__metal_driver_sifive_gpio0_output_toggle>:
2040537a:	7179                	addi	sp,sp,-48
2040537c:	d622                	sw	s0,44(sp)
2040537e:	1800                	addi	s0,sp,48
20405380:	fca42e23          	sw	a0,-36(s0)
20405384:	fcb42c23          	sw	a1,-40(s0)
20405388:	fdc42783          	lw	a5,-36(s0)
2040538c:	fef42623          	sw	a5,-20(s0)
20405390:	fec42783          	lw	a5,-20(s0)
20405394:	479c                	lw	a5,8(a5)
20405396:	07b1                	addi	a5,a5,12
20405398:	4398                	lw	a4,0(a5)
2040539a:	fd842783          	lw	a5,-40(s0)
2040539e:	fec42683          	lw	a3,-20(s0)
204053a2:	4694                	lw	a3,8(a3)
204053a4:	06b1                	addi	a3,a3,12
204053a6:	8fb9                	xor	a5,a5,a4
204053a8:	c29c                	sw	a5,0(a3)
204053aa:	4781                	li	a5,0
204053ac:	853e                	mv	a0,a5
204053ae:	5432                	lw	s0,44(sp)
204053b0:	6145                	addi	sp,sp,48
204053b2:	8082                	ret

204053b4 <__metal_driver_sifive_gpio0_enable_io>:
204053b4:	7179                	addi	sp,sp,-48
204053b6:	d622                	sw	s0,44(sp)
204053b8:	1800                	addi	s0,sp,48
204053ba:	fca42e23          	sw	a0,-36(s0)
204053be:	fcb42c23          	sw	a1,-40(s0)
204053c2:	fcc42a23          	sw	a2,-44(s0)
204053c6:	fdc42783          	lw	a5,-36(s0)
204053ca:	fef42623          	sw	a5,-20(s0)
204053ce:	fec42783          	lw	a5,-20(s0)
204053d2:	479c                	lw	a5,8(a5)
204053d4:	03c78793          	addi	a5,a5,60
204053d8:	439c                	lw	a5,0(a5)
204053da:	fd842703          	lw	a4,-40(s0)
204053de:	fff74713          	not	a4,a4
204053e2:	86ba                	mv	a3,a4
204053e4:	fec42703          	lw	a4,-20(s0)
204053e8:	4718                	lw	a4,8(a4)
204053ea:	03c70713          	addi	a4,a4,60
204053ee:	8ff5                	and	a5,a5,a3
204053f0:	c31c                	sw	a5,0(a4)
204053f2:	fec42783          	lw	a5,-20(s0)
204053f6:	479c                	lw	a5,8(a5)
204053f8:	03878793          	addi	a5,a5,56
204053fc:	4398                	lw	a4,0(a5)
204053fe:	fd442783          	lw	a5,-44(s0)
20405402:	fec42683          	lw	a3,-20(s0)
20405406:	4694                	lw	a3,8(a3)
20405408:	03868693          	addi	a3,a3,56
2040540c:	8fd9                	or	a5,a5,a4
2040540e:	c29c                	sw	a5,0(a3)
20405410:	4781                	li	a5,0
20405412:	853e                	mv	a0,a5
20405414:	5432                	lw	s0,44(sp)
20405416:	6145                	addi	sp,sp,48
20405418:	8082                	ret

2040541a <__metal_driver_sifive_uart0_interrupt_controller>:
2040541a:	7179                	addi	sp,sp,-48
2040541c:	d622                	sw	s0,44(sp)
2040541e:	1800                	addi	s0,sp,48
20405420:	fca42e23          	sw	a0,-36(s0)
20405424:	fdc42783          	lw	a5,-36(s0)
20405428:	fef42623          	sw	a5,-20(s0)
2040542c:	fec42783          	lw	a5,-20(s0)
20405430:	53dc                	lw	a5,36(a5)
20405432:	853e                	mv	a0,a5
20405434:	5432                	lw	s0,44(sp)
20405436:	6145                	addi	sp,sp,48
20405438:	8082                	ret

2040543a <__metal_driver_sifive_uart0_get_interrupt_id>:
2040543a:	7179                	addi	sp,sp,-48
2040543c:	d622                	sw	s0,44(sp)
2040543e:	1800                	addi	s0,sp,48
20405440:	fca42e23          	sw	a0,-36(s0)
20405444:	fdc42783          	lw	a5,-36(s0)
20405448:	fef42623          	sw	a5,-20(s0)
2040544c:	fec42783          	lw	a5,-20(s0)
20405450:	57dc                	lw	a5,44(a5)
20405452:	02078793          	addi	a5,a5,32
20405456:	853e                	mv	a0,a5
20405458:	5432                	lw	s0,44(sp)
2040545a:	6145                	addi	sp,sp,48
2040545c:	8082                	ret

2040545e <__metal_driver_sifive_uart0_putc>:
2040545e:	1101                	addi	sp,sp,-32
20405460:	ce22                	sw	s0,28(sp)
20405462:	1000                	addi	s0,sp,32
20405464:	fea42623          	sw	a0,-20(s0)
20405468:	87ae                	mv	a5,a1
2040546a:	fef405a3          	sb	a5,-21(s0)
2040546e:	0001                	nop
20405470:	fec42783          	lw	a5,-20(s0)
20405474:	47dc                	lw	a5,12(a5)
20405476:	439c                	lw	a5,0(a5)
20405478:	fe07cce3          	bltz	a5,20405470 <__metal_driver_sifive_uart0_putc+0x12>
2040547c:	fec42783          	lw	a5,-20(s0)
20405480:	47dc                	lw	a5,12(a5)
20405482:	873e                	mv	a4,a5
20405484:	feb44783          	lbu	a5,-21(s0)
20405488:	c31c                	sw	a5,0(a4)
2040548a:	4781                	li	a5,0
2040548c:	853e                	mv	a0,a5
2040548e:	4472                	lw	s0,28(sp)
20405490:	6105                	addi	sp,sp,32
20405492:	8082                	ret

20405494 <__metal_driver_sifive_uart0_getc>:
20405494:	7179                	addi	sp,sp,-48
20405496:	d622                	sw	s0,44(sp)
20405498:	1800                	addi	s0,sp,48
2040549a:	fca42e23          	sw	a0,-36(s0)
2040549e:	fcb42c23          	sw	a1,-40(s0)
204054a2:	800007b7          	lui	a5,0x80000
204054a6:	fef42623          	sw	a5,-20(s0)
204054aa:	a801                	j	204054ba <__metal_driver_sifive_uart0_getc+0x26>
204054ac:	fdc42783          	lw	a5,-36(s0)
204054b0:	47dc                	lw	a5,12(a5)
204054b2:	0791                	addi	a5,a5,4
204054b4:	439c                	lw	a5,0(a5)
204054b6:	fef42623          	sw	a5,-20(s0)
204054ba:	fec42783          	lw	a5,-20(s0)
204054be:	fe07c7e3          	bltz	a5,204054ac <__metal_driver_sifive_uart0_getc+0x18>
204054c2:	fec42783          	lw	a5,-20(s0)
204054c6:	0ff7f713          	andi	a4,a5,255
204054ca:	fd842783          	lw	a5,-40(s0)
204054ce:	00e78023          	sb	a4,0(a5) # 80000000 <metal_segment_heap_target_end+0xffffc000>
204054d2:	4781                	li	a5,0
204054d4:	853e                	mv	a0,a5
204054d6:	5432                	lw	s0,44(sp)
204054d8:	6145                	addi	sp,sp,48
204054da:	8082                	ret

204054dc <__metal_driver_sifive_uart0_get_baud_rate>:
204054dc:	7179                	addi	sp,sp,-48
204054de:	d622                	sw	s0,44(sp)
204054e0:	1800                	addi	s0,sp,48
204054e2:	fca42e23          	sw	a0,-36(s0)
204054e6:	fdc42783          	lw	a5,-36(s0)
204054ea:	fef42623          	sw	a5,-20(s0)
204054ee:	fec42783          	lw	a5,-20(s0)
204054f2:	4bdc                	lw	a5,20(a5)
204054f4:	853e                	mv	a0,a5
204054f6:	5432                	lw	s0,44(sp)
204054f8:	6145                	addi	sp,sp,48
204054fa:	8082                	ret

204054fc <__metal_driver_sifive_uart0_set_baud_rate>:
204054fc:	7179                	addi	sp,sp,-48
204054fe:	d606                	sw	ra,44(sp)
20405500:	d422                	sw	s0,40(sp)
20405502:	1800                	addi	s0,sp,48
20405504:	fca42e23          	sw	a0,-36(s0)
20405508:	fcb42c23          	sw	a1,-40(s0)
2040550c:	fdc42783          	lw	a5,-36(s0)
20405510:	fef42623          	sw	a5,-20(s0)
20405514:	fd842703          	lw	a4,-40(s0)
20405518:	fec42783          	lw	a5,-20(s0)
2040551c:	cbd8                	sw	a4,20(a5)
2040551e:	fec42783          	lw	a5,-20(s0)
20405522:	479c                	lw	a5,8(a5)
20405524:	c3b5                	beqz	a5,20405588 <__metal_driver_sifive_uart0_set_baud_rate+0x8c>
20405526:	fec42783          	lw	a5,-20(s0)
2040552a:	479c                	lw	a5,8(a5)
2040552c:	439c                	lw	a5,0(a5)
2040552e:	4398                	lw	a4,0(a5)
20405530:	fec42783          	lw	a5,-20(s0)
20405534:	479c                	lw	a5,8(a5)
20405536:	853e                	mv	a0,a5
20405538:	9702                	jalr	a4
2040553a:	fea42423          	sw	a0,-24(s0)
2040553e:	fe842703          	lw	a4,-24(s0)
20405542:	fd842783          	lw	a5,-40(s0)
20405546:	02f747b3          	div	a5,a4,a5
2040554a:	fff78713          	addi	a4,a5,-1
2040554e:	fec42783          	lw	a5,-20(s0)
20405552:	47dc                	lw	a5,12(a5)
20405554:	07e1                	addi	a5,a5,24
20405556:	c398                	sw	a4,0(a5)
20405558:	fec42783          	lw	a5,-20(s0)
2040555c:	47dc                	lw	a5,12(a5)
2040555e:	07a1                	addi	a5,a5,8
20405560:	439c                	lw	a5,0(a5)
20405562:	fec42703          	lw	a4,-20(s0)
20405566:	4758                	lw	a4,12(a4)
20405568:	0721                	addi	a4,a4,8
2040556a:	0017e793          	ori	a5,a5,1
2040556e:	c31c                	sw	a5,0(a4)
20405570:	fec42783          	lw	a5,-20(s0)
20405574:	47dc                	lw	a5,12(a5)
20405576:	07b1                	addi	a5,a5,12
20405578:	439c                	lw	a5,0(a5)
2040557a:	fec42703          	lw	a4,-20(s0)
2040557e:	4758                	lw	a4,12(a4)
20405580:	0731                	addi	a4,a4,12
20405582:	0017e793          	ori	a5,a5,1
20405586:	c31c                	sw	a5,0(a4)
20405588:	4781                	li	a5,0
2040558a:	853e                	mv	a0,a5
2040558c:	50b2                	lw	ra,44(sp)
2040558e:	5422                	lw	s0,40(sp)
20405590:	6145                	addi	sp,sp,48
20405592:	8082                	ret

20405594 <pre_rate_change_callback>:
20405594:	7139                	addi	sp,sp,-64
20405596:	de06                	sw	ra,60(sp)
20405598:	dc22                	sw	s0,56(sp)
2040559a:	0080                	addi	s0,sp,64
2040559c:	fca42623          	sw	a0,-52(s0)
204055a0:	fcc42783          	lw	a5,-52(s0)
204055a4:	fef42623          	sw	a5,-20(s0)
204055a8:	fec42783          	lw	a5,-20(s0)
204055ac:	47dc                	lw	a5,12(a5)
204055ae:	07a1                	addi	a5,a5,8
204055b0:	4398                	lw	a4,0(a5)
204055b2:	fec42783          	lw	a5,-20(s0)
204055b6:	47dc                	lw	a5,12(a5)
204055b8:	07a1                	addi	a5,a5,8
204055ba:	86be                	mv	a3,a5
204055bc:	fff907b7          	lui	a5,0xfff90
204055c0:	17fd                	addi	a5,a5,-1
204055c2:	8ff9                	and	a5,a5,a4
204055c4:	c29c                	sw	a5,0(a3)
204055c6:	fec42783          	lw	a5,-20(s0)
204055ca:	47dc                	lw	a5,12(a5)
204055cc:	07a1                	addi	a5,a5,8
204055ce:	4398                	lw	a4,0(a5)
204055d0:	fec42783          	lw	a5,-20(s0)
204055d4:	47dc                	lw	a5,12(a5)
204055d6:	07a1                	addi	a5,a5,8
204055d8:	86be                	mv	a3,a5
204055da:	67c1                	lui	a5,0x10
204055dc:	8fd9                	or	a5,a5,a4
204055de:	c29c                	sw	a5,0(a3)
204055e0:	0001                	nop
204055e2:	fec42783          	lw	a5,-20(s0)
204055e6:	47dc                	lw	a5,12(a5)
204055e8:	07d1                	addi	a5,a5,20
204055ea:	439c                	lw	a5,0(a5)
204055ec:	8b85                	andi	a5,a5,1
204055ee:	dbf5                	beqz	a5,204055e2 <pre_rate_change_callback+0x4e>
204055f0:	fec42783          	lw	a5,-20(s0)
204055f4:	47dc                	lw	a5,12(a5)
204055f6:	07a1                	addi	a5,a5,8
204055f8:	439c                	lw	a5,0(a5)
204055fa:	8b89                	andi	a5,a5,2
204055fc:	c399                	beqz	a5,20405602 <pre_rate_change_callback+0x6e>
204055fe:	47a5                	li	a5,9
20405600:	a011                	j	20405604 <pre_rate_change_callback+0x70>
20405602:	47a9                	li	a5,10
20405604:	fef42423          	sw	a5,-24(s0)
20405608:	fec42783          	lw	a5,-20(s0)
2040560c:	479c                	lw	a5,8(a5)
2040560e:	439c                	lw	a5,0(a5)
20405610:	4398                	lw	a4,0(a5)
20405612:	fec42783          	lw	a5,-20(s0)
20405616:	479c                	lw	a5,8(a5)
20405618:	853e                	mv	a0,a5
2040561a:	9702                	jalr	a4
2040561c:	fea42223          	sw	a0,-28(s0)
20405620:	fe842703          	lw	a4,-24(s0)
20405624:	fe442783          	lw	a5,-28(s0)
20405628:	02f707b3          	mul	a5,a4,a5
2040562c:	873e                	mv	a4,a5
2040562e:	fec42783          	lw	a5,-20(s0)
20405632:	4bdc                	lw	a5,20(a5)
20405634:	02f757b3          	divu	a5,a4,a5
20405638:	fef42023          	sw	a5,-32(s0)
2040563c:	fc042e23          	sw	zero,-36(s0)
20405640:	a039                	j	2040564e <pre_rate_change_callback+0xba>
20405642:	0001                	nop
20405644:	fdc42783          	lw	a5,-36(s0)
20405648:	0785                	addi	a5,a5,1
2040564a:	fcf42e23          	sw	a5,-36(s0)
2040564e:	fdc42783          	lw	a5,-36(s0)
20405652:	fe042703          	lw	a4,-32(s0)
20405656:	fee7c6e3          	blt	a5,a4,20405642 <pre_rate_change_callback+0xae>
2040565a:	0001                	nop
2040565c:	50f2                	lw	ra,60(sp)
2040565e:	5462                	lw	s0,56(sp)
20405660:	6121                	addi	sp,sp,64
20405662:	8082                	ret

20405664 <post_rate_change_callback>:
20405664:	7179                	addi	sp,sp,-48
20405666:	d606                	sw	ra,44(sp)
20405668:	d422                	sw	s0,40(sp)
2040566a:	1800                	addi	s0,sp,48
2040566c:	fca42e23          	sw	a0,-36(s0)
20405670:	fdc42783          	lw	a5,-36(s0)
20405674:	fef42623          	sw	a5,-20(s0)
20405678:	fec42703          	lw	a4,-20(s0)
2040567c:	fec42783          	lw	a5,-20(s0)
20405680:	4bdc                	lw	a5,20(a5)
20405682:	85be                	mv	a1,a5
20405684:	853a                	mv	a0,a4
20405686:	e94fe0ef          	jal	ra,20403d1a <metal_uart_set_baud_rate>
2040568a:	0001                	nop
2040568c:	50b2                	lw	ra,44(sp)
2040568e:	5422                	lw	s0,40(sp)
20405690:	6145                	addi	sp,sp,48
20405692:	8082                	ret

20405694 <__metal_driver_sifive_uart0_init>:
20405694:	7179                	addi	sp,sp,-48
20405696:	d606                	sw	ra,44(sp)
20405698:	d422                	sw	s0,40(sp)
2040569a:	1800                	addi	s0,sp,48
2040569c:	fca42e23          	sw	a0,-36(s0)
204056a0:	fcb42c23          	sw	a1,-40(s0)
204056a4:	fdc42783          	lw	a5,-36(s0)
204056a8:	fef42623          	sw	a5,-20(s0)
204056ac:	fec42783          	lw	a5,-20(s0)
204056b0:	479c                	lw	a5,8(a5)
204056b2:	c79d                	beqz	a5,204056e0 <__metal_driver_sifive_uart0_init+0x4c>
204056b4:	fec42783          	lw	a5,-20(s0)
204056b8:	4798                	lw	a4,8(a5)
204056ba:	fec42603          	lw	a2,-20(s0)
204056be:	204057b7          	lui	a5,0x20405
204056c2:	59478593          	addi	a1,a5,1428 # 20405594 <pre_rate_change_callback>
204056c6:	853a                	mv	a0,a4
204056c8:	2085                	jal	20405728 <metal_clock_register_pre_rate_change_callback>
204056ca:	fec42783          	lw	a5,-20(s0)
204056ce:	4798                	lw	a4,8(a5)
204056d0:	fec42603          	lw	a2,-20(s0)
204056d4:	204057b7          	lui	a5,0x20405
204056d8:	66478593          	addi	a1,a5,1636 # 20405664 <post_rate_change_callback>
204056dc:	853a                	mv	a0,a4
204056de:	28a5                	jal	20405756 <metal_clock_register_post_rate_change_callback>
204056e0:	fec42783          	lw	a5,-20(s0)
204056e4:	fd842583          	lw	a1,-40(s0)
204056e8:	853e                	mv	a0,a5
204056ea:	e30fe0ef          	jal	ra,20403d1a <metal_uart_set_baud_rate>
204056ee:	fec42783          	lw	a5,-20(s0)
204056f2:	4f9c                	lw	a5,24(a5)
204056f4:	c78d                	beqz	a5,2040571e <__metal_driver_sifive_uart0_init+0x8a>
204056f6:	fec42783          	lw	a5,-20(s0)
204056fa:	4f9c                	lw	a5,24(a5)
204056fc:	43dc                	lw	a5,4(a5)
204056fe:	0187a803          	lw	a6,24(a5)
20405702:	fec42783          	lw	a5,-20(s0)
20405706:	4f98                	lw	a4,24(a5)
20405708:	fec42783          	lw	a5,-20(s0)
2040570c:	4fdc                	lw	a5,28(a5)
2040570e:	86be                	mv	a3,a5
20405710:	fec42783          	lw	a5,-20(s0)
20405714:	539c                	lw	a5,32(a5)
20405716:	863e                	mv	a2,a5
20405718:	85b6                	mv	a1,a3
2040571a:	853a                	mv	a0,a4
2040571c:	9802                	jalr	a6
2040571e:	0001                	nop
20405720:	50b2                	lw	ra,44(sp)
20405722:	5422                	lw	s0,40(sp)
20405724:	6145                	addi	sp,sp,48
20405726:	8082                	ret

20405728 <metal_clock_register_pre_rate_change_callback>:
20405728:	1101                	addi	sp,sp,-32
2040572a:	ce22                	sw	s0,28(sp)
2040572c:	1000                	addi	s0,sp,32
2040572e:	fea42623          	sw	a0,-20(s0)
20405732:	feb42423          	sw	a1,-24(s0)
20405736:	fec42223          	sw	a2,-28(s0)
2040573a:	fec42783          	lw	a5,-20(s0)
2040573e:	fe842703          	lw	a4,-24(s0)
20405742:	c3d8                	sw	a4,4(a5)
20405744:	fec42783          	lw	a5,-20(s0)
20405748:	fe442703          	lw	a4,-28(s0)
2040574c:	c798                	sw	a4,8(a5)
2040574e:	0001                	nop
20405750:	4472                	lw	s0,28(sp)
20405752:	6105                	addi	sp,sp,32
20405754:	8082                	ret

20405756 <metal_clock_register_post_rate_change_callback>:
20405756:	1101                	addi	sp,sp,-32
20405758:	ce22                	sw	s0,28(sp)
2040575a:	1000                	addi	s0,sp,32
2040575c:	fea42623          	sw	a0,-20(s0)
20405760:	feb42423          	sw	a1,-24(s0)
20405764:	fec42223          	sw	a2,-28(s0)
20405768:	fec42783          	lw	a5,-20(s0)
2040576c:	fe842703          	lw	a4,-24(s0)
20405770:	c7d8                	sw	a4,12(a5)
20405772:	fec42783          	lw	a5,-20(s0)
20405776:	fe442703          	lw	a4,-28(s0)
2040577a:	cb98                	sw	a4,16(a5)
2040577c:	0001                	nop
2040577e:	4472                	lw	s0,28(sp)
20405780:	6105                	addi	sp,sp,32
20405782:	8082                	ret

20405784 <metal_cpu_get_timer>:
20405784:	1101                	addi	sp,sp,-32
20405786:	ce06                	sw	ra,28(sp)
20405788:	cc22                	sw	s0,24(sp)
2040578a:	1000                	addi	s0,sp,32
2040578c:	fea42623          	sw	a0,-20(s0)
20405790:	fec42783          	lw	a5,-20(s0)
20405794:	439c                	lw	a5,0(a5)
20405796:	439c                	lw	a5,0(a5)
20405798:	fec42503          	lw	a0,-20(s0)
2040579c:	9782                	jalr	a5
2040579e:	87aa                	mv	a5,a0
204057a0:	882e                	mv	a6,a1
204057a2:	853e                	mv	a0,a5
204057a4:	85c2                	mv	a1,a6
204057a6:	40f2                	lw	ra,28(sp)
204057a8:	4462                	lw	s0,24(sp)
204057aa:	6105                	addi	sp,sp,32
204057ac:	8082                	ret

204057ae <metal_cpu_get_timebase>:
204057ae:	1101                	addi	sp,sp,-32
204057b0:	ce06                	sw	ra,28(sp)
204057b2:	cc22                	sw	s0,24(sp)
204057b4:	1000                	addi	s0,sp,32
204057b6:	fea42623          	sw	a0,-20(s0)
204057ba:	fec42783          	lw	a5,-20(s0)
204057be:	439c                	lw	a5,0(a5)
204057c0:	43dc                	lw	a5,4(a5)
204057c2:	fec42503          	lw	a0,-20(s0)
204057c6:	9782                	jalr	a5
204057c8:	87aa                	mv	a5,a0
204057ca:	882e                	mv	a6,a1
204057cc:	853e                	mv	a0,a5
204057ce:	85c2                	mv	a1,a6
204057d0:	40f2                	lw	ra,28(sp)
204057d2:	4462                	lw	s0,24(sp)
204057d4:	6105                	addi	sp,sp,32
204057d6:	8082                	ret

204057d8 <metal_cpu_get>:
204057d8:	1101                	addi	sp,sp,-32
204057da:	ce22                	sw	s0,28(sp)
204057dc:	1000                	addi	s0,sp,32
204057de:	fea42623          	sw	a0,-20(s0)
204057e2:	fec42783          	lw	a5,-20(s0)
204057e6:	00f04a63          	bgtz	a5,204057fa <metal_cpu_get+0x22>
204057ea:	fec42703          	lw	a4,-20(s0)
204057ee:	070a                	slli	a4,a4,0x2
204057f0:	81418793          	addi	a5,gp,-2028 # 8000099c <__metal_cpu_table>
204057f4:	97ba                	add	a5,a5,a4
204057f6:	439c                	lw	a5,0(a5)
204057f8:	a011                	j	204057fc <metal_cpu_get+0x24>
204057fa:	4781                	li	a5,0
204057fc:	853e                	mv	a0,a5
204057fe:	4472                	lw	s0,28(sp)
20405800:	6105                	addi	sp,sp,32
20405802:	8082                	ret

20405804 <metal_shutdown>:
20405804:	1101                	addi	sp,sp,-32
20405806:	ce22                	sw	s0,28(sp)
20405808:	1000                	addi	s0,sp,32
2040580a:	fea42623          	sw	a0,-20(s0)
2040580e:	0001                	nop
20405810:	bffd                	j	2040580e <metal_shutdown+0xa>

20405812 <_exit>:
20405812:	1101                	addi	sp,sp,-32
20405814:	ce06                	sw	ra,28(sp)
20405816:	cc22                	sw	s0,24(sp)
20405818:	1000                	addi	s0,sp,32
2040581a:	fea42623          	sw	a0,-20(s0)
2040581e:	fec42503          	lw	a0,-20(s0)
20405822:	37cd                	jal	20405804 <metal_shutdown>
